******************************************************************************
                  TI ARM Linker PC v16.9.4                     
******************************************************************************
>> Linked Thu Nov 09 19:57:28 2017

OUTPUT FILE NAME:   <mqtt_client_CC3220SF_LAUNCHXL_tirtos_ccs.out>
ENTRY POINT SYMBOL: "_c_int00"  address: 010124f1


MEMORY CONFIGURATION

         name            origin    length      used     unused   attr    fill
----------------------  --------  ---------  --------  --------  ----  --------
  FLASH_HDR             01000000   000007ff  00000000  000007ff  R  X
  FLASH                 01000800   000ff800  00015c10  000e9bf0  R  X
  SRAM                  20000000   00040000  0000b2bf  00034d41  RW X


SEGMENT ALLOCATION MAP

run origin  load origin   length   init length attrs members
----------  ----------- ---------- ----------- ----- -------
01000800    01000800    00015c18   00015c18    r-x
  01000800    01000800    0000003c   0000003c    r-- .resetVecs
  01000840    01000840    00014ba2   00014ba2    r-x .text
  010153e4    010153e4    00000d32   00000d32    r-- .const
  01016118    01016118    00000300   00000300    r-- .cinit
20000310    20000310    00008000   00000000    r--
  20000310    20000310    00008000   00000000    r-- .priheap
20008400    20008400    00002bb4   00000000    rw-
  20008400    20008400    0000237f   00000000    rw- .bss
  2000a780    2000a780    00000834   00000000    rw- .data
2003fc00    2003fc00    00000400   00000000    rw-
  2003fc00    2003fc00    00000400   00000000    rw- .stack


SECTION ALLOCATION MAP

 output                                  attributes/
section   page    origin      length       input sections
--------  ----  ----------  ----------   ----------------
.binit     0    01000000    00000000     

.resetVecs 
*          0    01000800    0000003c     
                  01000800    0000003c     release_pem4.oem4 (.resetVecs)

.text      0    01000840    00014ba2     
                  01000840    00001122     rtsv7M4_T_le_eabi.lib : _printfi.obj (.text)
                  01001962    00000002     drivers_cc32xx.aem4 : UARTCC32XX.oem4 (.text:UARTCC32XX_init)
                  01001964    0000086c     simplelink.a : driver.obj (.text:_SlDrvMsgRead)
                  010021d0    0000042c     driverlib.a : prcm.obj (.text:PRCMCC3200MCUInit)
                  010025fc    0000040c     simplelink.a : sl_socket.obj (.text:_SlSocketHandleAsync_Select)
                  01002a08    00000380                  : driver.obj (.text:_SlDrvMsgWrite)
                  01002d88    0000033c     client_cbs.obj (.text:MqttClientCallback)
                  010030c4    00000320     network_if.obj (.text:Network_IF_ConnectAP)
                  010033e4    000002dc     simplelink.a : driver.obj (.text:_SlDrvRxHdrRead)
                  010036c0    000002a8     mqtt_client_app.obj (.text:mainThread)
                  01003968    000002a4     drivers_cc32xx.aem4 : UARTCC32XX.oem4 (.text:UARTCC32XX_open)
                  01003c0c    00000274     simplelink.a : wlan.obj (.text:sl_WlanConnect)
                  01003e80    00000268     mqtt_client_app.obj (.text:MqttClient_start)
                  010040e8    00000264     network_if.obj (.text:Network_IF_InitDriver)
                  0100434c    00000254     simplelink.a : sl_socket.obj (.text:sl_Select)
                  010045a0    0000024c     mqtt_client.a : mqtt_client.obj (.text:MqttClientCtxCreate)
                  010047ec    00000238     mqtt_client_app.obj (.text:DisplayAppBanner)
                  01004a24    00000224     mqtt_client_app.obj (.text:MqttClient)
                  01004c48    00000208     simplelink.a : driver.obj (.text:_SlDrvDriverCBInit)
                  01004e50    000001fc                  : driver.obj (.text:_SlDrvDataReadOp)
                  0100504c    000001f4     rtsv7M4_T_le_eabi.lib : ull_div_t2.obj (.text)
                  01005240    000001f2     simplelink.a : netapp.obj (.text:_SlNetAppEventHandler)
                  01005432    00000002     release_pem4.oem4 (.text:ti_sysbios_BIOS_nullFunc__I)
                  01005434    000001e4     mqtt_client.a : mqtt_client.obj (.text:MQTTClient_connect)
                  01005618    000001e1     network_if.obj (.text:SimpleLinkFatalErrorEventHandler)
                  010057f9    00000001     --HOLE-- [fill = 0]
                  010057fa    000001da     mqtt_client.a : cc32xx_sl_net.obj (.text:createSocket)
                  010059d4    000001d8     network_if.obj (.text:SimpleLinkWlanEventHandler)
                  01005bac    000001d8     simplelink.a : driver.obj (.text:_SlDrvReleasePoolObj)
                  01005d84    000001cc     drivers_cc32xx.aem4 : GPIOCC32XX.oem4 (.text:GPIO_setConfig)
                  01005f50    000001c6                         : SPICC32XXDMA.oem4 (.text:SPICC32XXDMA_transfer)
                  01006116    00000002     release_pem4.oem4 (.text:xdc_runtime_Startup_reset__I)
                  01006118    000001bc     simplelink.a : driver.obj (.text:_SlDrvMsgReadCmdCtx)
                  010062d4    000001bc                  : sl_socket.obj (.text:sl_Accept)
                  01006490    000001b6     rtsv7M4_T_le_eabi.lib : fd_add_t2.obj (.text)
                  01006646    00000002     --HOLE-- [fill = 0]
                  01006648    000001b4     dpl_cc32xx.aem4 : PowerCC32XX_tirtos.oem4 (.text:PowerCC32XX_sleepPolicy)
                  010067fc    0000019c     simplelink.a : driver.obj (.text:_SlDrvWaitForPoolObj)
                  01006998    0000018c                  : sl_socket.obj (.text:sl_Connect)
                  01006b24    00000004     dpl_cc32xx.aem4 : ClockP_tirtos.oem4 (.text:ClockP_getCpuFreq)
                  01006b28    00000188     sysbios.aem4 : BIOS.obj (.text:mq_open)
                  01006cb0    00000180     mqtt_client.a : mqtt_common.obj (.text:MQTT_PacketRecv)
                  01006e30    00000180     network_if.obj (.text:SimpleLinkNetAppEventHandler)
                  01006fb0    00000180     simplelink.a : driver.obj (.text:_SlDrvDataWriteOp)
                  01007130    00000180     drivers_cc32xx.aem4 : SPICC32XXDMA.oem4 (.text:configDMA)
                  010072b0    0000017c     simplelink.a : spawn.obj (.text:_SlInternalSpawnTaskEntry)
                  0100742c    00000174                  : driver.obj (.text:_SlDrvFindAndSetActiveObj)
                  010075a0    0000016c                  : device.obj (.text:sl_Stop)
                  0100770c    00000158     drivers_cc32xx.aem4 : SPICC32XXDMA.oem4 (.text:SPICC32XXDMA_open)
                  01007864    00000154     simplelink.a : sl_socket.obj (.text:sl_RecvFrom)
                  010079b8    00000154     mqtt_client.a : client_core.obj (.text:utf8ArraySend)
                  01007b0c    00000150                   : mqtt_client.obj (.text:MqttClientConfig)
                  01007c5c    00000150     simplelink.a : driver.obj (.text:_SlDrvDriverCBDeinit)
                  01007dac    00000150     drivers_cc32xx.aem4 : PowerCC32XX.oem4 (.text:parkPins)
                  01007efc    00000144     mqtt_client_app.obj (.text:Mqtt_IF_Connect)
                  01008040    00000140     mqtt_client_app.obj (.text:Mqtt_start)
                  01008180    0000013c     simplelink.a : sl_socket.obj (.text:_SlDrvRegisterForSelectAsync)
                  010082bc    0000013c     mqtt_client.a : mqtt_client.obj (.text:processNotifyAckCB)
                  010083f8    00000138     simplelink.a : driver.obj (.text:_SlDrvAsyncEventGenericHandler)
                  01008530    00000136     rtsv7M4_T_le_eabi.lib : fd_div_t2.obj (.text)
                  01008666    00000002     --HOLE-- [fill = 0]
                  01008668    00000134     simplelink.a : netapp.obj (.text:sl_NetAppDnsGetHostByName)
                  0100879c    00000130                  : sl_socket.obj (.text:_SlDrvGetNextTimeoutValue)
                  010088cc    00000004     dpl_cc32xx.aem4 : ClockP_tirtos.oem4 (.text:ClockP_setTimeout)
                  010088d0    00000130     sysbios.aem4 : BIOS.obj (.text:ti_sysbios_knl_Semaphore_pend__E)
                  01008a00    0000012c     mqtt_client.a : client_core.obj (.text:MQTTClientCore_initLib)
                  01008b2c    00000128     simplelink.a : driver.obj (.text:_SlDrvClassifyRxMsg)
                  01008c54    00000124     mqtt_client.a : client_core.obj (.text:clCtxPartSend)
                  01008d78    00000124                   : client_core.obj (.text:connectMsgSend)
                  01008e9c    00000124     simplelink.a : device.obj (.text:sl_Start)
                  01008fc0    00000120     drivers_cc32xx.aem4 : UARTCC32XX.oem4 (.text:UARTCC32XX_close)
                  010090e0    0000011c     sysbios.aem4 : BIOS.obj (.text:xdc_runtime_Startup_startMods__I)
                  010091fc    00000118     drivers_cc32xx.aem4 : PowerCC32XX.oem4 (.text:Power_sleep)
                  01009314    00000114     simplelink.a : netapp.obj (.text:_SlNetAppHandleAsync_DnsGetHostByService)
                  01009428    00000110     mqtt_client.a : cc32xx_sl_net.obj (.text:commOpen)
                  01009538    00000110     sysbios.aem4 : BIOS.obj (.text:timer_create)
                  01009648    0000010c     mqtt_client.a : mqtt_client.obj (.text:MQTTClient_create)
                  01009754    0000010c     simplelink.a : driver.obj (.text:_SlDrvMsgReadSpawnCtx)
                  01009860    0000010c                  : sl_socket.obj (.text:sl_Close)
                  0100996c    00000004     dpl_cc32xx.aem4 : ClockP_tirtos.oem4 (.text:ClockP_start)
                  01009970    0000010c     sysbios.aem4 : BIOS.obj (.text:ti_sysbios_knl_Task_Instance_finalize__E)
                  01009a7c    00000104     simplelink.a : device.obj (.text:_SlDeviceEventHandler)
                  01009b80    00000104                  : driver.obj (.text:_SlDrvCmdOp)
                  01009c84    00000104                  : driver.obj (.text:_SlDrvObjGlobalLockWaitForever)
                  01009d88    00000102     mqtt_client.a : client_core.obj (.text:procPubMsgRx)
                  01009e8a    00000002     --HOLE-- [fill = 0]
                  01009e8c    000000fd     network_if.obj (.text:SimpleLinkSockEventHandler)
                  01009f89    00000003     --HOLE-- [fill = 0]
                  01009f8c    000000fc     mqtt_client.a : mqtt_client.obj (.text:MqttClientSub)
                  0100a088    000000fc     rtsv7M4_T_le_eabi.lib : fd_mul_t2.obj (.text)
                  0100a184    000000f4     simplelink.a : sl_socket.obj (.text:sl_SendTo)
                  0100a278    000000f2     drivers_cc32xx.aem4 : SPICC32XXDMA.oem4 (.text:SPICC32XXDMA_transferCancel)
                  0100a36a    000000ee                         : UARTCC32XX.oem4 (.text:UARTCC32XX_control)
                  0100a458    000000ec     mqtt_client.a : client_core.obj (.text:_msgDispatch)
                  0100a544    000000ec                   : client_core.obj (.text:clCtxConnStateTryLocked)
                  0100a630    000000ec     sysbios.aem4 : BIOS.obj (.text:pthread_create)
                  0100a71c    000000e6     mqtt_client.a : cc32xx_sl_net.obj (.text:tcpSelect)
                  0100a802    00000002     --HOLE-- [fill = 0]
                  0100a804    000000dc                   : mqtt_client.obj (.text:MqttClient_send)
                  0100a8e0    000000dc                   : client_core.obj (.text:processRecv)
                  0100a9bc    000000d8     uart_term.obj (.text:GetCmd)
                  0100aa94    000000d8     simplelink.a : netapp.obj (.text:_SlNetAppHandleAsync_NetAppReceive)
                  0100ab6c    000000d4     mqtt_client.a : client_core.obj (.text:netRecv)
                  0100ac40    000000d4     sysbios.aem4 : BIOS.obj (.text:ti_sysbios_knl_Mailbox_Instance_init__E)
                  0100ad14    000000d0     mqtt_client_app.obj (.text:Mqtt_Stop)
                  0100ade4    000000d0     drivers_cc32xx.aem4 : SPICC32XXDMA.oem4 (.text:SPICC32XXDMA_close)
                  0100aeb4    000000d0     rtsv7M4_T_le_eabi.lib : s_scalbn.obj (.text)
                  0100af84    00000004     dpl_cc32xx.aem4 : ClockP_tirtos.oem4 (.text:ClockP_stop)
                  0100af88    000000d0     sysbios.aem4 : BIOS.obj (.text:ti_sysbios_heaps_HeapMem_alloc__E)
                  0100b058    000000d0     mqtt_client.a : client_core.obj (.text:wrConnectPayload)
                  0100b128    000000cc     sysbios.aem4 : m3_Hwi_asm.obj (.text:ti_sysbios_family_arm_m3_Hwi_dispatch__I)
                  0100b1f4    000000c8     mqtt_client.a : client_core.obj (.text:MQTTClientCore_createCtx)
                  0100b2bc    00000004     dpl_cc32xx.aem4 : HwiP_tirtos.oem4 (.text:HwiP_clearInterrupt)
                  0100b2c0    000000c8     sysbios.aem4 : BIOS.obj (.text:clock_gettime)
                  0100b388    000000c8                  : BIOS.obj (.text:timer_settime)
                  0100b450    000000c4     drivers_cc32xx.aem4 : GPIOCC32XX.oem4 (.text:GPIO_init)
                  0100b514    000000c4     simplelink.a : driver.obj (.text:_SlDrvRemoveFromList)
                  0100b5d8    000000c4     sysbios.aem4 : BIOS.obj (.text:ti_sysbios_knl_Task_sleep__E)
                  0100b69c    000000c0     simplelink.a : cc_pal.obj (.text:NwpPowerOff)
                  0100b75c    000000c0     drivers_cc32xx.aem4 : UARTCC32XX.oem4 (.text:UARTCC32XX_write)
                  0100b81c    000000c0     simplelink.a : spawn.obj (.text:_SlInternalSpawn)
                  0100b8dc    000000c0                  : netcfg.obj (.text:sl_NetCfgGet)
                  0100b99c    00000004     dpl_cc32xx.aem4 : HwiP_tirtos.oem4 (.text:HwiP_disable)
                  0100b9a0    000000c0     sysbios.aem4 : BIOS.obj (.text:ti_sysbios_knl_Task_Instance_init__E)
                  0100ba60    000000bc     simplelink.a : netapp.obj (.text:_SlNetAppSendResponse)
                  0100bb1c    000000bc                  : sl_socket.obj (.text:sl_Send)
                  0100bbd8    000000bc     sysbios.aem4 : BIOS.obj (.text:xdc_runtime_Core_createObject__I)
                  0100bc94    000000b8     drivers_cc32xx.aem4 : UARTCC32XX.oem4 (.text:initHw)
                  0100bd4c    000000b8     simplelink.a : device.obj (.text:sl_DeviceGet)
                  0100be04    000000b4     mqtt_client_app.obj (.text:SetClientIdNamefromMacAddress)
                  0100beb8    000000b4     drivers_cc32xx.aem4 : UARTCC32XX.oem4 (.text:UARTCC32XX_readPolling)
                  0100bf6c    000000b4     mqtt_client.a : client_core.obj (.text:procAckMsgRx)
                  0100c020    000000b4                   : mqtt_client.obj (.text:processPublishRxCB)
                  0100c0d4    000000b4     drivers_cc32xx.aem4 : PowerCC32XX.oem4 (.text:restoreParkedPins)
                  0100c188    000000b2     mqtt_client.a : mqtt_common.obj (.text:MQTT_packetPubAppendTopic)
                  0100c23a    00000002     --HOLE-- [fill = 0]
                  0100c23c    000000b0                   : mqtt_client.obj (.text:MQTTClient_delete)
                  0100c2ec    000000b0                   : mqtt_client.obj (.text:MqttClientUnsub)
                  0100c39c    000000b0     simplelink.a : device.obj (.text:_SlDeviceHandleAsync_InitComplete)
                  0100c44c    000000b0                  : driver.obj (.text:_SlDrvHandleFatalError)
                  0100c4fc    000000b0     mqtt_client.a : client_core.obj (.text:procConnackRx)
                  0100c5ac    000000b0                   : client_core.obj (.text:procCtxDataRecv)
                  0100c65c    000000ae                   : cc32xx_sl_net.obj (.text:svrAddrNBOrderIPV4)
                  0100c70a    00000002     --HOLE-- [fill = 0]
                  0100c70c    000000aa     uart_term.obj (.text:Report)
                  0100c7b6    000000aa     drivers_cc32xx.aem4 : UARTCC32XX.oem4 (.text:readIsrTextBlocking)
                  0100c860    000000aa                         : UARTCC32XX.oem4 (.text:readTaskBlocking)
                  0100c90a    00000002     --HOLE-- [fill = 0]
                  0100c90c    000000a8     network_if.obj (.text:Network_IF_IpConfigGet)
                  0100c9b4    000000a8     drivers_cc32xx.aem4 : PowerCC32XX.oem4 (.text:PowerCC32XX_configureWakeup)
                  0100ca5c    000000a4     mqtt_client.a : client_core.obj (.text:clientReset)
                  0100cb00    000000a4     simplelink.a : sl_socket.obj (.text:sl_Bind)
                  0100cba4    00000004     dpl_cc32xx.aem4 : HwiP_tirtos.oem4 (.text:HwiP_disableInterrupt)
                  0100cba8    000000a4     sysbios.aem4 : BIOS.obj (.text:ti_sysbios_knl_Task_setPri__E)
                  0100cc4c    000000a2     mqtt_client.a : mqtt_common.obj (.text:MQTT_packetProcPubRx)
                  0100ccee    000000a2     drivers_cc32xx.aem4 : UARTCC32XX.oem4 (.text:writeData)
                  0100cd90    000000a0     mqtt_client_app.obj (.text:Mqtt_ClientStop)
                  0100ce30    000000a0     auto_init.aem4 : auto_init.oem4 (.text)
                  0100ced0    000000a0     mqtt_client.a : client_core.obj (.text:mqpSetupProcCtxDataRecv)
                  0100cf70    000000a0     drivers_cc32xx.aem4 : UARTCC32XX.oem4 (.text:readIsrTextCallback)
                  0100d010    000000a0     mqtt_client.a : client_core.obj (.text:singleCtxKaSequence)
                  0100d0b0    0000009e     simplelink.a : cc_pal.obj (.text:spi_Read)
                  0100d14e    0000009e                  : cc_pal.obj (.text:spi_Write)
                  0100d1ec    00000004     dpl_cc32xx.aem4 : HwiP_tirtos.oem4 (.text:HwiP_enableInterrupt)
                  0100d1f0    0000009c     sysbios.aem4 : BIOS.obj (.text:_pthread_removeThreadKeys)
                  0100d28c    0000009c     mqtt_client.a : client_core.obj (.text:doNetClose)
                  0100d328    0000009c     drivers_cc32xx.aem4 : SPICC32XXDMA.oem4 (.text:initHw)
                  0100d3c4    0000009c     mqtt_client.a : cc32xx_sl_net.obj (.text:recvFrom)
                  0100d460    0000009c     rtsv7M4_T_le_eabi.lib : memcpy_t2.obj (.text)
                  0100d4fc    00000004     drivers_cc32xx.aem4 : List.oem4 (.text:List_head)
                  0100d500    0000009c     sysbios.aem4 : BIOS.obj (.text:ti_sysbios_knl_Task_postInit__I)
                  0100d59c    00000098     uart_term.obj (.text:TrimSpace)
                  0100d634    00000098     simplelink.a : netutil.obj (.text:_SlNetUtilHandleAsync_Cmd)
                  0100d6cc    00000098     drivers_cc32xx.aem4 : GPIOCC32XX.oem4 (.text:powerNotifyFxn)
                  0100d764    00000004                         : List.oem4 (.text:List_next)
                  0100d768    00000098     sysbios.aem4 : BIOS.obj (.text:ti_sysbios_family_arm_m3_Hwi_Instance_init__E)
                  0100d800    00000094     mqtt_client.a : client_core.obj (.text:groupCtxsRxPrep)
                  0100d894    00000094     drivers_cc32xx.aem4 : SPICC32XXDMA.oem4 (.text:spiHwiFxn)
                  0100d928    00000094     sysbios.aem4 : BIOS.obj (.text:ti_sysbios_knl_Task_exit__E)
                  0100d9bc    00000090     simplelink.a : netapp.obj (.text:_SlNetAppHandleAsync_DnsGetHostByName)
                  0100da4c    00000090                  : netapp.obj (.text:_SlNetAppHandleAsync_PingResponse)
                  0100dadc    00000090     drivers_cc32xx.aem4 : PowerCC32XX.oem4 (.text:restoreNVICRegs)
                  0100db6c    0000008e     mqtt_client.a : client_core.obj (.text:MQTTClientCore_sendPubMsg)
                  0100dbfa    00000002     --HOLE-- [fill = 0]
                  0100dbfc    0000008d     mqtt_client_app.obj (.text:DisplayBanner)
                  0100dc89    00000003     --HOLE-- [fill = 0]
                  0100dc8c    0000008c     mqtt_client.a : client_core.obj (.text:MQTTClientCore_exitLib)
                  0100dd18    0000008c     simplelink.a : driver.obj (.text:_SlDrvDriverIsApiAllowed)
                  0100dda4    0000008c     mqtt_client.a : client_core.obj (.text:ack1WlMqpDispatch)
                  0100de30    0000008c                   : client_core.obj (.text:clRecv)
                  0100debc    0000008c     simplelink.a : sl_socket.obj (.text:sl_Recv)
                  0100df48    0000008a     mqtt_client.a : mqtt_common.obj (.text:MQTT_packetPubAppendData)
                  0100dfd2    0000008a                   : cc32xx_sl_net.obj (.text:tcpListen)
                  0100e05c    00000088                   : client_core.obj (.text:MQTTClientCore_registerBuffers)
                  0100e0e4    00000088                   : mqtt_client.obj (.text:MQTTClient_run)
                  0100e16c    00000004     dpl_cc32xx.aem4 : MutexP_tirtos.oem4 (.text:MutexP_lock)
                  0100e170    00000088     sysbios.aem4 : BIOS.obj (.text:pthread_cancel)
                  0100e1f8    00000088     rtsv7M4_T_le_eabi.lib : vsnprintf.obj (.text)
                  0100e280    00000088     sysbios.aem4 : BIOS.obj (.text:ti_sysbios_family_arm_m3_Hwi_initNVIC__E)
                  0100e308    00000088                  : BIOS.obj (.text:ti_sysbios_knl_Mailbox_post__E)
                  0100e390    00000088                  : BIOS.obj (.text:xdc_runtime_Memory_alloc__E)
                  0100e418    00000086     simplelink.a : driver.obj (.text:_SlDrvIsTimeoutExpired)
                  0100e49e    00000086     rtsv7M4_T_le_eabi.lib : fd_cmp_t2.obj (.text:__aeabi_cdcmple)
                  0100e524    00000086                           : fd_cmp_t2.obj (.text:__aeabi_cdrcmple)
                  0100e5aa    00000084     mqtt_client.a : client_core.obj (.text:MQTTClientCore_registerWillInfo)
                  0100e62e    00000002     --HOLE-- [fill = 0]
                  0100e630    00000084                   : mqtt_client.obj (.text:MQTTClient_set)
                  0100e6b4    00000084     mqtt_client_app.obj (.text:MqttClientThread)
                  0100e738    00000084     simplelink.a : sl_socket.obj (.text:_SlSocketHandleAsync_Close)
                  0100e7bc    00000084                  : sl_socket.obj (.text:_SlSocketHandleAsync_Connect)
                  0100e840    00000084     sysbios.aem4 : BIOS.obj (.text:_pthread_runStub)
                  0100e8c4    00000084     mqtt_client.a : client_core.obj (.text:ack2MsgIdDispatch)
                  0100e948    00000084     drivers_cc32xx.aem4 : PowerCC32XX.oem4 (.text:saveNVICRegs)
                  0100e9cc    00000084     simplelink.a : sl_socket.obj (.text:sl_SetSockOpt)
                  0100ea50    00000084     sysbios.aem4 : BIOS.obj (.text:ti_sysbios_family_arm_m3_Hwi_postInit__I)
                  0100ead4    00000004     dpl_cc32xx.aem4 : MutexP_tirtos.oem4 (.text:MutexP_unlock)
                  0100ead8    00000084     sysbios.aem4 : BIOS.obj (.text:ti_sysbios_heaps_HeapMem_free__E)
                  0100eb5c    00000004     drivers_cc32xx.aem4 : SPICC32XXDMA.oem4 (.text:SPICC32XXDMA_init)
                  0100eb60    00000084     sysbios.aem4 : BIOS.obj (.text:xdc_runtime_Core_constructObject__I)
                  0100ebe4    00000082     mqtt_client.a : client_core.obj (.text:connectedStateRx)
                  0100ec66    00000080                   : cc32xx_sl_net.obj (.text:sendTo)
                  0100ece6    0000007e     drivers_cc32xx.aem4 : UARTCC32XX.oem4 (.text:readIsrBinaryBlocking)
                  0100ed64    0000007c                         : UDMACC32XX.oem4 (.text:UDMACC32XX_open)
                  0100ede0    0000007c     mqtt_client.a : client_core.obj (.text:_procAckMsgRx)
                  0100ee5c    00000004     dpl_cc32xx.aem4 : SemaphoreP_tirtos.oem4 (.text:SemaphoreP_post)
                  0100ee60    0000007c     sysbios.aem4 : BIOS.obj (.text:_pthread_abstime2ticks)
                  0100eedc    0000007c     mqtt_client.a : client_core.obj (.text:clCtxSetup)
                  0100ef58    0000007a     drivers_cc32xx.aem4 : UARTCC32XX.oem4 (.text:readTaskCallback)
                  0100efd2    0000007a     rtsv7M4_T_le_eabi.lib : memset_t2.obj (.text)
                  0100f04c    00000078     drivers_cc32xx.aem4 : GPIOCC32XX.oem4 (.text:GPIO_hwiIntFxn)
                  0100f0c4    00000078                         : PowerCC32XX.oem4 (.text:Power_init)
                  0100f13c    00000078     mqtt_client_app.obj (.text:pushButtonInterruptHandler3)
                  0100f1b4    00000078     simplelink.a : sl_socket.obj (.text:sl_Socket)
                  0100f22c    00000076     mqtt_client.a : mqtt_common.obj (.text:MQTT_packetPrepFh)
                  0100f2a2    00000076                   : client_core.obj (.text:bufUTF8WrTry)
                  0100f318    00000074                   : mqtt_common.obj (.text:MQTT_qos2PubCqCheck)
                  0100f38c    00000074     simplelink.a : sl_socket.obj (.text:_SlDrvUnRegisterForSelectAsync)
                  0100f400    00000074     mqtt_client.a : cc32xx_sl_net.obj (.text:tcpAccept)
                  0100f474    00000004     release_pem4.oem4 (.text:ti_sysbios_BIOS_RtsGateProxy_enter__E)
                  0100f478    00000074     sysbios.aem4 : BIOS.obj (.text:ti_sysbios_knl_Mailbox_pend__E)
                  0100f4ec    00000004     release_pem4.oem4 (.text:ti_sysbios_BIOS_RtsGateProxy_leave__E)
                  0100f4f0    00000074     sysbios.aem4 : BIOS.obj (.text:xdc_runtime_Core_deleteObject__I)
                  0100f564    00000072     drivers_cc32xx.aem4 : UARTCC32XX.oem4 (.text:readIsrBinaryCallback)
                  0100f5d6    00000070     mqtt_client.a : mqtt_common.obj (.text:MQTT_clCtxTimeoutInsert)
                  0100f646    00000070                   : mqtt_common.obj (.text:MQTT_packetAckWlistRemove)
                  0100f6b6    00000002     --HOLE-- [fill = 0]
                  0100f6b8    00000070     sysbios.aem4 : BIOS.obj (.text:acquireMutexNone$22)
                  0100f728    00000070                  : BIOS.obj (.text:ti_sysbios_heaps_HeapMem_initPrimary__I)
                  0100f798    00000070                  : BIOS.obj (.text:ti_sysbios_knl_Mailbox_Instance_finalize__E)
                  0100f808    00000070                  : BIOS.obj (.text:ti_sysbios_knl_Semaphore_post__E)
                  0100f878    00000070     mqtt_client.a : client_core.obj (.text:wrConnectVh)
                  0100f8e8    0000006e                   : client_core.obj (.text:MQTTClientCore_registerCtxInfo)
                  0100f956    00000002     --HOLE-- [fill = 0]
                  0100f958    0000006c     simplelink.a : device.obj (.text:_SlDeviceHandleResetRequestInternally)
                  0100f9c4    0000006c                  : driver.obj (.text:_SlDrvCmdSend_noLock)
                  0100fa30    0000006c                  : sl_socket.obj (.text:_SlDrvOpenCtrlSocket)
                  0100fa9c    0000006c                  : netapp.obj (.text:_SlNetAppSendTokenValue)
                  0100fb08    0000006c     sysbios.aem4 : BIOS.obj (.text:pthread_exit)
                  0100fb74    00000004     release_pem4.oem4 (.text:ti_sysbios_family_arm_m3_Hwi_delete)
                  0100fb78    0000006c     sysbios.aem4 : BIOS.obj (.text:ti_sysbios_knl_Clock_workFunc__E)
                  0100fbe4    00000004     release_pem4.oem4 (.text:ti_sysbios_family_arm_m3_TaskSupport_Module__startupDone__S)
                  0100fbe8    0000006c     sysbios.aem4 : BIOS.obj (.text:ti_sysbios_knl_Swi_restoreHwi__E)
                  0100fc54    00000068     mqtt_client.a : client_core.obj (.text:MQTTClientCore_deleteCtx)
                  0100fcbc    00000068                   : client_core.obj (.text:MQTTClientCore_sendDisconn)
                  0100fd24    00000068     drivers_cc32xx.aem4 : PowerCC32XX.oem4 (.text:PowerCC32XX_setParkState)
                  0100fd8c    00000068     simplelink.a : device.obj (.text:_SlDeviceHandleAsync_Stop)
                  0100fdf4    00000068                  : sl_socket.obj (.text:_SlSocketHandleAsync_Accept)
                  0100fe5c    00000068     rtsv7M4_T_le_eabi.lib : copy_decompress_lzss.obj (.text:decompress:lzss)
                  0100fec4    00000068     mqtt_client.a : client_core.obj (.text:doNetCloseRx)
                  0100ff2c    00000068     main_tirtos.obj (.text:main)
                  0100ff94    00000068     mqtt_client.a : client_core.obj (.text:procPingrspRx)
                  0100fffc    00000066     drivers_cc32xx.aem4 : UARTCC32XX.oem4 (.text:UARTCC32XX_writeCancel)
                  01010062    00000066     mqtt_client.a : client_core.obj (.text:vhMsgSend)
                  010100c8    00000064     drivers_cc32xx.aem4 : GPIOCC32XX.oem4 (.text:GPIO_toggle)
                  0101012c    00000064                         : UARTCC32XX.oem4 (.text:UARTCC32XX_hwiIntFxn)
                  01010190    00000064     mqtt_client.a : mqtt_client.obj (.text:getAvailableClictxMem)
                  010101f4    00000064                   : client_core.obj (.text:netConnect)
                  01010258    00000064     sysbios.aem4 : BIOS.obj (.text:pthread_mutex_init)
                  010102bc    00000004     release_pem4.oem4 (.text:ti_sysbios_gates_GateMutex_delete)
                  010102c0    00000064     sysbios.aem4 : BIOS.obj (.text:ti_sysbios_family_arm_m3_Hwi_dispatchC__I)
                  01010324    00000062     mqtt_client.a : client_core.obj (.text:MQTTClientCore_alloc)
                  01010386    00000062                   : mqtt_common.obj (.text:MQTT_packetBufTailWrRemlen)
                  010103e8    00000062     drivers_cc32xx.aem4 : UARTCC32XX.oem4 (.text:UARTCC32XX_writePolling)
                  0101044a    00000060     mqtt_client.a : mqtt_common.obj (.text:MQTT_packetBufRdRemlen)
                  010104aa    00000002     --HOLE-- [fill = 0]
                  010104ac    00000060     driverlib.a : prcm.obj (.text:PRCMSysResetCauseGet)
                  0101050c    00000060     mqtt_client.a : client_core.obj (.text:clientDescInit)
                  0101056c    00000060                   : cc32xx_sl_net.obj (.text:tcpRecv)
                  010105cc    0000005e                   : client_core.obj (.text:clCtxRecv)
                  0101062a    00000002     --HOLE-- [fill = 0]
                  0101062c    0000005c                   : client_core.obj (.text:MQTTClientCore_run)
                  01010688    0000005c     drivers_cc32xx.aem4 : PowerCC32XX.oem4 (.text:Power_setDependency)
                  010106e4    0000005c     mqtt_client.a : client_core.obj (.text:grpNetSetupCreate)
                  01010740    0000005c     rtsv7M4_T_le_eabi.lib : s_frexp.obj (.text)
                  0101079c    00000004     release_pem4.oem4 (.text:ti_sysbios_heaps_HeapMem_Module_GateProxy_enter__E)
                  010107a0    0000005c     sysbios.aem4 : BIOS.obj (.text:ti_sysbios_family_arm_m3_Timer_start__E)
                  010107fc    00000004     release_pem4.oem4 (.text:ti_sysbios_heaps_HeapMem_Module_GateProxy_leave__E)
                  01010800    0000005c     sysbios.aem4 : BIOS.obj (.text:ti_sysbios_knl_Swi_run__I)
                  0101085c    00000004     release_pem4.oem4 (.text:ti_sysbios_knl_Clock_TimerProxy_getMaxTicks__E)
                  01010860    0000005c     sysbios.aem4 : BIOS.obj (.text:ti_sysbios_knl_Swi_schedule__I)
                  010108bc    00000004     release_pem4.oem4 (.text:ti_sysbios_knl_Clock_TimerProxy_setPeriodMicroSecs__E)
                  010108c0    0000005c     sysbios.aem4 : BIOS.obj (.text:ti_sysbios_knl_Task_Module_startup__E)
                  0101091c    00000004     release_pem4.oem4 (.text:ti_sysbios_knl_Clock_TimerProxy_start__E)
                  01010920    0000005c     sysbios.aem4 : BIOS.obj (.text:ti_sysbios_knl_Task_startCore__E)
                  0101097c    00000004     release_pem4.oem4 (.text:ti_sysbios_knl_Clock_TimerProxy_stop__E)
                  01010980    0000005c     sysbios.aem4 : BIOS.obj (.text:xdc_runtime_Startup_exec__E)
                  010109dc    0000005a     mqtt_client.a : client_core.obj (.text:singleCtxRxPrep)
                  01010a36    00000002     --HOLE-- [fill = 0]
                  01010a38    00000058     drivers_cc32xx.aem4 : GPIOCC32XX.oem4 (.text:GPIO_setCallback)
                  01010a90    00000058                         : GPIOCC32XX.oem4 (.text:GPIO_write)
                  01010ae8    00000058     driverlib.a : prcm.obj (.text:PRCMPeripheralReset)
                  01010b40    00000058     drivers_cc32xx.aem4 : PowerCC32XX.oem4 (.text:Power_releaseDependency)
                  01010b98    00000058     simplelink.a : sl_socket.obj (.text:_SlDrvClearCtrlSocket)
                  01010bf0    00000058     mqtt_client.a : client_core.obj (.text:doNetCloseTx)
                  01010c48    00000058     simplelink.a : sl_socket.obj (.text:sl_Listen)
                  01010ca0    00000058     sysbios.aem4 : BIOS.obj (.text:ti_sysbios_family_arm_cc32xx_Seconds_getCount__I)
                  01010cf8    00000056     mqtt_client.a : mqtt_common.obj (.text:MQTT_clCtxRemove)
                  01010d4e    00000002     --HOLE-- [fill = 0]
                  01010d50    00000054     uart_term.obj (.text:InitTerm)
                  01010da4    00000054     mqtt_client.a : client_core.obj (.text:MQTTClientCore_registerNetSvc)
                  01010df8    00000054     rtsv7M4_T_le_eabi.lib : ltoa.obj (.text)
                  01010e4c    00000054     release_pem4.oem4 (.text:ti_sysbios_family_arm_m3_Hwi_create)
                  01010ea0    00000054     sysbios.aem4 : BIOS.obj (.text:ti_sysbios_family_arm_m3_Timer_setPeriod__E)
                  01010ef4    00000054     release_pem4.oem4 (.text:ti_sysbios_knl_Mailbox_create)
                  01010f48    00000054     sysbios.aem4 : BIOS.obj (.text:timer_gettime)
                  01010f9c    00000004     release_pem4.oem4 (.text:ti_sysbios_knl_Clock_delete)
                  01010fa0    00000054     sysbios.aem4 : BIOS.obj (.text:xdc_runtime_Core_assignLabel__I)
                  01010ff4    00000053     mqtt_client.a : client_core.obj (.text:ack1WlRmfree)
                  01011047    00000001     --HOLE-- [fill = 0]
                  01011048    00000052                   : mqtt_common.obj (.text:MQTT_qos2PubCqUnlog)
                  0101109a    00000052     drivers_cc32xx.aem4 : PowerCC32XX.oem4 (.text:PowerCC32XX_parkPin)
                  010110ec    00000052                         : PowerCC32XX_asm.oem4 (.text:PowerCC32XX_resumeLPDS)
                  0101113e    00000052     mqtt_client.a : client_core.obj (.text:_procPubRecRx)
                  01011190    00000052                   : client_core.obj (.text:clCtxSeg1Send)
                  010111e2    00000002     --HOLE-- [fill = 0]
                  010111e4    00000050                   : mqtt_client.obj (.text:MQTTClient_disconnect)
                  01011234    00000050     simplelink.a : cc_pal.obj (.text:NwpRegisterInterruptHandler)
                  01011284    00000050                  : sl_socket.obj (.text:_SlDrvCloseCtrlSocket)
                  010112d4    00000050                  : driver.obj (.text:_SlDrvRxIrqHandler)
                  01011324    00000050                  : eventreg.obj (.text:_SlNetAppHttpServerHdlr)
                  01011374    00000050                  : eventreg.obj (.text:_SlNetAppRequestHdlr)
                  010113c4    00000050     mqtt_client.a : client_core.obj (.text:loopbTrigger)
                  01011414    00000050                   : client_core.obj (.text:mqpAllocAtomic)
                  01011464    00000050     simplelink.a : cc_pal.obj (.text:spi_Open)
                  010114b4    00000004     release_pem4.oem4 (.text:ti_sysbios_knl_Semaphore_delete)
                  010114b8    00000050     sysbios.aem4 : BIOS.obj (.text:ti_sysbios_family_arm_cc32xx_Seconds_getTime__E)
                  01011508    00000050                  : BIOS.obj (.text:ti_sysbios_family_arm_m3_Hwi_Module_startup__E)
                  01011558    00000050     release_pem4.oem4 (.text:ti_sysbios_knl_Task_create)
                  010115a8    0000004f     mqtt_client.a : client_core.obj (.text:sessionResume)
                  010115f7    00000001     --HOLE-- [fill = 0]
                  010115f8    0000004e                   : client_core.obj (.text:ack2MsgIdUnlog)
                  01011646    00000002     --HOLE-- [fill = 0]
                  01011648    0000004d                   : client_core.obj (.text:sessionDelete)
                  01011695    00000003     --HOLE-- [fill = 0]
                  01011698    0000004c     drivers_cc32xx.aem4 : GPIOCC32XX.oem4 (.text:GPIO_disableInt)
                  010116e4    0000004c                         : GPIOCC32XX.oem4 (.text:GPIO_enableInt)
                  01011730    0000004c     mqtt_client.a : mqtt_common.obj (.text:MQTT_qos2PubCqLogup)
                  0101177c    0000004c                   : mqtt_client.obj (.text:MqttClientCtxDelete)
                  010117c8    0000004c     simplelink.a : cc_pal.obj (.text:NwpWaitForShutDownInd)
                  01011814    0000004c                  : driver.obj (.text:_SlDrvCmdSend_noWait)
                  01011860    0000004c                  : driver.obj (.text:_SlDrvProtectAsyncRespSetting)
                  010118ac    0000004c     mqtt_client.a : mqtt_client.obj (.text:_sl_ExtLib_ServerAckLockedWait)
                  010118f8    0000004c     drivers_cc32xx.aem4 : PowerCC32XX.oem4 (.text:restorePeriphClocks)
                  01011944    0000004c     rtsv7M4_T_le_eabi.lib : atoi.obj (.text)
                  01011990    0000004c                           : cpy_tbl.obj (.text)
                  010119dc    0000004c     mqtt_client.a : client_core.obj (.text:singleCtxAdjWaitSecsGet)
                  01011a28    0000004c     simplelink.a : wlan.obj (.text:sl_WlanSetMode)
                  01011a74    0000004c     sysbios.aem4 : m3_TaskSupport_asm.obj (.text:ti_sysbios_family_arm_m3_TaskSupport_buildTaskStack)
                  01011ac0    0000004c                  : BIOS.obj (.text:ti_sysbios_heaps_HeapMem_getStats__E)
                  01011b0c    00000004     release_pem4.oem4 (.text:ti_sysbios_knl_Task_delete)
                  01011b10    0000004c     sysbios.aem4 : BIOS.obj (.text:ti_sysbios_knl_Swi_runLoop__I)
                  01011b5c    00000004     release_pem4.oem4 (.text:xdc_runtime_System_Module_GateProxy_enter__E)
                  01011b60    0000004c     sysbios.aem4 : BIOS.obj (.text:ti_sysbios_knl_Task_allBlockedFunction__I)
                  01011bac    00000004     release_pem4.oem4 (.text:xdc_runtime_System_Module_GateProxy_leave__E)
                  01011bb0    0000004c     sysbios.aem4 : BIOS.obj (.text:ti_sysbios_knl_Task_schedule__I)
                  01011bfc    0000004a     mqtt_client.a : client_core.obj (.text:recvHvecLoad)
                  01011c46    00000002     --HOLE-- [fill = 0]
                  01011c48    00000048     dpl_cc32xx.aem4 : ClockP_tirtos.oem4 (.text:ClockP_create)
                  01011c90    00000048     driverlib.a : flash.obj (.text:FlashDisable)
                  01011cd8    00000048     mqtt_client_app.obj (.text:LedTimerConfigNStart)
                  01011d20    00000048     mqtt_client_app.obj (.text:MQTT_SendMsgToQueue)
                  01011d68    00000048     driverlib.a : prcm.obj (.text:PRCMLPDSEnter)
                  01011db0    00000048                 : prcm.obj (.text:PRCMPeripheralClkEnable)
                  01011df8    00000048     drivers_cc32xx.aem4 : PowerCC32XX.oem4 (.text:Power_releaseConstraint)
                  01011e40    00000048     simplelink.a : eventreg.obj (.text:_SlDeviceFatalErrorEvtHdlr)
                  01011e88    00000048                  : eventreg.obj (.text:_SlDeviceGeneralEvtHdlr)
                  01011ed0    00000048                  : driver.obj (.text:_SlDrvBasicCmd)
                  01011f18    00000048                  : driver.obj (.text:_SlDrvSyncObjWaitTimeout)
                  01011f60    00000048                  : eventreg.obj (.text:_SlNetAppEvtHdlr)
                  01011fa8    00000048                  : eventreg.obj (.text:_SlNetAppRequestMemFree)
                  01011ff0    00000048                  : eventreg.obj (.text:_SlSockEvtHdlr)
                  01012038    00000048                  : eventreg.obj (.text:_SlWlanEvtHdlr)
                  01012080    00000048     mqtt_client.a : client_core.obj (.text:procLoopbackRecv)
                  010120c8    00000048                   : mqtt_client.obj (.text:processDisconnCB)
                  01012110    00000048     rtsv7M4_T_le_eabi.lib : fd_toi_t2.obj (.text)
                  01012158    00000048     sysbios.aem4 : BIOS.obj (.text:ti_sysbios_family_arm_m3_Hwi_disableInterrupt__E)
                  010121a0    00000048                  : BIOS.obj (.text:ti_sysbios_family_arm_m3_Hwi_enableInterrupt__E)
                  010121e8    00000048                  : m3_Hwi_asm_switch.obj (.text:ti_sysbios_family_arm_m3_Hwi_initStacks__E)
                  01012230    00000048                  : BIOS.obj (.text:ti_sysbios_family_arm_m3_Timer_initDevice__I)
                  01012278    00000048                  : BIOS.obj (.text:ti_sysbios_knl_Mailbox_Module_startup__E)
                  010122c0    00000048                  : BIOS.obj (.text:ti_sysbios_knl_Task_deleteTerminatedTasksFunc__I)
                  01012308    00000046     drivers_cc32xx.aem4 : RingBuf.oem4 (.text:RingBuf_put)
                  0101234e    00000046     mqtt_client.a : mqtt_common.obj (.text:mqpProcVhMsgIdRx)
                  01012394    00000004     --HOLE-- [fill = 0]
                  01012398    00000046     sysbios.aem4 : BIOS.obj (.text:xdc_runtime_Core_assignParams__I)
                  010123de    00000002     --HOLE-- [fill = 0]
                  010123e0    00000044     driverlib.a : prcm.obj (.text:PRCMLPDSRestoreInfoSet)
                  01012424    00000044     drivers_cc32xx.aem4 : PowerCC32XX_asm.oem4 (.text:PowerCC32XX_enterLPDS)
                  01012468    00000044                         : SPI.oem4 (.text:SPI_init)
                  010124ac    00000044                         : UART.oem4 (.text:UART_init)
                  010124f0    00000044     boot.aem4 : boot.oem4 (.text)
                  01012534    00000044     drivers_cc32xx.aem4 : PowerCC32XX.oem4 (.text:notify)
                  01012578    00000044     mqtt_client.a : client_core.obj (.text:singleCtxRxPrepLocked)
                  010125bc    00000044                   : client_core.obj (.text:tailIncorpMsgID)
                  01012600    00000044     sysbios.aem4 : BIOS.obj (.text:ti_sysbios_family_arm_m3_Hwi_getStackInfo__E)
                  01012644    00000004     --HOLE-- [fill = 0]
                  01012648    00000044                  : BIOS.obj (.text:ti_sysbios_knl_Mailbox_postInit__I)
                  0101268c    00000004     --HOLE-- [fill = 0]
                  01012690    00000044                  : BIOS.obj (.text:ti_sysbios_knl_Swi_post__E)
                  010126d4    00000004     --HOLE-- [fill = 0]
                  010126d8    00000044                  : BIOS.obj (.text:xdc_runtime_System_atexit__E)
                  0101271c    00000042     mqtt_client.a : client_core.obj (.text:pingReqSend)
                  0101275e    00000042     simplelink.a : sl_socket.obj (.text:sl_Htonl)
                  010127a0    00000042     mqtt_client.a : client_core.obj (.text:txPartSetup)
                  010127e2    00000040     simplelink.a : sl_socket.obj (.text:CountSetBits)
                  01012822    00000002     --HOLE-- [fill = 0]
                  01012824    00000040     dpl_cc32xx.aem4 : HwiP_tirtos.oem4 (.text:HwiP_create)
                  01012864    00000040     network_if.obj (.text:InitializeAppVariables)
                  010128a4    00000040     mqtt_client.a : mqtt_common.obj (.text:MQTT_clCtxTimeoutUpdate)
                  010128e4    00000040     driverlib.a : pin.obj (.text:PinModeSet)
                  01012924    00000040     drivers_cc32xx.aem4 : RingBuf.oem4 (.text:RingBuf_get)
                  01012964    00000040     network_if.obj (.text:SimpleLinkGeneralEventHandler)
                  010129a4    00000040     drivers_cc32xx.aem4 : UARTCC32XX.oem4 (.text:UARTCC32XX_read)
                  010129e4    00000040                         : UDMACC32XX.oem4 (.text:UDMACC32XX_init)
                  01012a24    00000040     simplelink.a : driver.obj (.text:_SlDrvGlobalObjUnLock)
                  01012a64    00000040                  : eventreg.obj (.text:_SlIsEventRegistered)
                  01012aa4    00000040     mqtt_client.a : client_core.obj (.text:groupCtxsKaSequence)
                  01012ae4    00000004     --HOLE-- [fill = 0]
                  01012ae8    00000040     sysbios.aem4 : BIOS.obj (.text:pthread_mutex_unlock)
                  01012b28    00000040     mqtt_client_app.obj (.text:pushButtonInterruptHandler2)
                  01012b68    00000040     rtsv7M4_T_le_eabi.lib : strtok.obj (.text)
                  01012ba8    00000040     sysbios.aem4 : BIOS.obj (.text:ti_sysbios_heaps_HeapMem_Instance_init__E)
                  01012be8    0000003e     simplelink.a : sl_socket.obj (.text:_SlSocketBuildAddress)
                  01012c26    0000003e     release_pem4.oem4 (.text:realloc)
                  01012c64    0000003e     mqtt_client.a : client_core.obj (.text:session311fix)
                  01012ca2    00000002     --HOLE-- [fill = 0]
                  01012ca4    0000003c     network_if.obj (.text:Network_IF_DisconnectFromAP)
                  01012ce0    0000003c     drivers_cc32xx.aem4 : PowerCC32XX.oem4 (.text:Power_setConstraint)
                  01012d1c    0000003c                         : SPI.oem4 (.text:SPI_open)
                  01012d58    0000003c     dpl_cc32xx.aem4 : SemaphoreP_tirtos.oem4 (.text:SemaphoreP_create)
                  01012d94    0000003c     drivers_cc32xx.aem4 : UART.oem4 (.text:UART_open)
                  01012dd0    0000003c     simplelink.a : netapp.obj (.text:_SlNetAppCopyPingResultsToReport)
                  01012e0c    0000003c     dpl_cc32xx.aem4 : PowerCC32XX_tirtos.oem4 (.text:getCountsRTC)
                  01012e48    0000003c     mqtt_client.a : client_core.obj (.text:mqpFreeLocked)
                  01012e84    0000003c     simplelink.a : sl_socket.obj (.text:sl_Htons)
                  01012ec0    0000003c     sysbios.aem4 : BIOS.obj (.text:ti_sysbios_family_arm_m3_Hwi_Instance_finalize__E)
                  01012efc    00000004     --HOLE-- [fill = 0]
                  01012f00    0000003c                  : BIOS.obj (.text:ti_sysbios_family_arm_m3_Timer_setPeriodMicroSecs__E)
                  01012f3c    00000004     --HOLE-- [fill = 0]
                  01012f40    0000003c                  : BIOS.obj (.text:ti_sysbios_knl_Clock_Instance_init__E)
                  01012f7c    0000003c     release_pem4.oem4 (.text:ti_sysbios_knl_Clock_create)
                  01012fb8    0000003c     sysbios.aem4 : BIOS.obj (.text:ti_sysbios_knl_Clock_walkQueuePeriodic__E)
                  01012ff4    00000004     --HOLE-- [fill = 0]
                  01012ff8    0000003c                  : BIOS.obj (.text:ti_sysbios_knl_Swi_restore__E)
                  01013034    00000004     --HOLE-- [fill = 0]
                  01013038    0000003c                  : BIOS.obj (.text:xdc_runtime_System_processAtExit__E)
                  01013074    00000038     mqtt_client.a : client_core.obj (.text:MQTT_bufWrNbytes)
                  010130ac    00000038                   : mqtt_common.obj (.text:MQTT_bufWrNbytes)
                  010130e4    00000038     driverlib.a : prcm.obj (.text:PRCMLPDSEnterKeepDebugIf)
                  0101311c    00000004     --HOLE-- [fill = 0]
                  01013120    00000038     sysbios.aem4 : BIOS.obj (.text:mq_close)
                  01013158    00000038     mqtt_client.a : client_core.obj (.text:netSend)
                  01013190    00000038     sysbios.aem4 : BIOS.obj (.text:pthread_setschedparam)
                  010131c8    00000038                  : BIOS.obj (.text:ti_sysbios_knl_Task_processVitalTaskFlag__I)
                  01013200    00000036     mqtt_client.a : mqtt_common.obj (.text:MQTT_bufSet)
                  01013236    00000036                   : mqtt_common.obj (.text:MQTT_packetAckWlistAppend)
                  0101326c    00000036                   : mqtt_common.obj (.text:MQTT_packetBufWrUtf8)
                  010132a2    00000036                   : mqtt_common.obj (.text:MQTT_packetProcMsgIdAckRx)
                  010132d8    00000036     drivers_cc32xx.aem4 : PowerCC32XX.oem4 (.text:PowerCC32XX_restoreParkedPin)
                  0101330e    00000036                         : UARTCC32XX.oem4 (.text:UARTCC32XX_readCancel)
                  01013344    00000004     --HOLE-- [fill = 0]
                  01013348    00000036     sysbios.aem4 : BIOS.obj (.text:mq_timedsend)
                  0101337e    00000036     rtsv7M4_T_le_eabi.lib : strncpy.obj (.text)
                  010133b4    00000034     mqtt_client.a : mqtt_common.obj (.text:MQTT_packetReset)
                  010133e8    00000034     driverlib.a : pin.obj (.text:PinModeGet)
                  0101341c    00000034     drivers_cc32xx.aem4 : PowerCC32XX.oem4 (.text:PowerCC32XX_restoreParkState)
                  01013450    00000034     mqtt_client.a : mqtt_client.obj (.text:SetCondAwaitedAckLocked)
                  01013484    00000034     drivers_cc32xx.aem4 : UDMACC32XX.oem4 (.text:UDMACC32XX_close)
                  010134b8    00000034     mqtt_client.a : client_core.obj (.text:_procPubRelRx)
                  010134ec    00000034                   : client_core.obj (.text:conn2usedCtxs)
                  01013520    00000034     sysbios.aem4 : BIOS.obj (.text:ti_sysbios_family_arm_m3_Timer_periodicStub__I)
                  01013554    00000034     release_pem4.oem4 (.text:ti_sysbios_knl_Semaphore_create)
                  01013588    00000032     mqtt_client.a : mqtt_common.obj (.text:MQTT_packetAckWlistPurge)
                  010135ba    00000032                   : client_core.obj (.text:awaitsPkts)
                  010135ec    00000032                   : client_core.obj (.text:procNetDataRecv)
                  0101361e    00000002     --HOLE-- [fill = 0]
                  01013620    00000032     sysbios.aem4 : BIOS.obj (.text:ti_sysbios_hal_Hwi_initStack)
                  01013652    00000030     mqtt_client.a : mqtt_common.obj (.text:MQTT_clCtxReset)
                  01013682    00000002     --HOLE-- [fill = 0]
                  01013684    00000030     simplelink.a : driver.obj (.text:_SlDrvSyncObjWaitForever)
                  010136b4    00000004     --HOLE-- [fill = 0]
                  010136b8    00000030     sysbios.aem4 : BIOS.obj (.text:clockFxn$25)
                  010136e8    00000030                  : BIOS.obj (.text:findInList$26)
                  01013718    00000030     mqtt_client_app.obj (.text:printBorder)
                  01013748    00000030     release_pem4.oem4 (.text:ti_sysbios_BIOS_atExitFunc__I)
                  01013778    00000030     release_pem4.oem4 (.text:ti_sysbios_BIOS_startFunc__I)
                  010137a8    00000030     sysbios.aem4 : BIOS.obj (.text:ti_sysbios_family_arm_m3_TaskSupport_start__E)
                  010137d8    00000030     release_pem4.oem4 (.text:ti_sysbios_gates_GateHwi_Object__create__S)
                  01013808    00000030     release_pem4.oem4 (.text:ti_sysbios_gates_GateMutex_Object__create__S)
                  01013838    00000030     release_pem4.oem4 (.text:ti_sysbios_gates_GateMutex_create)
                  01013868    00000030     sysbios.aem4 : BIOS.obj (.text:ti_sysbios_gates_GateMutex_enter__E)
                  01013898    00000030     release_pem4.oem4 (.text:ti_sysbios_heaps_HeapMem_Object__create__S)
                  010138c8    00000030     release_pem4.oem4 (.text:ti_sysbios_knl_Clock_construct)
                  010138f8    00000030     release_pem4.oem4 (.text:ti_sysbios_knl_Semaphore_construct)
                  01013928    00000030     sysbios.aem4 : BIOS.obj (.text:ti_sysbios_knl_Semaphore_pendTimeout__I)
                  01013958    00000030                  : BIOS.obj (.text:ti_sysbios_knl_Task_unblockI__E)
                  01013988    00000030                  : BIOS.obj (.text:timer_delete)
                  010139b8    00000030     simplelink.a : sl_socket.obj (.text:to_mSec)
                  010139e8    0000002e     mqtt_client.a : mqtt_client.obj (.text:MQTTClient_publish)
                  01013a16    0000002e                   : mqtt_client.obj (.text:_sl_ExtLib_AwaitedAckSet)
                  01013a44    0000002e     rtsv7M4_T_le_eabi.lib : i_tofd_t2.obj (.text)
                  01013a72    0000002e     release_pem4.oem4 (.text:ti_sysbios_rts_gnu_MemAlloc_alloc)
                  01013aa0    0000002c     drivers_cc32xx.aem4 : GPIOCC32XX.oem4 (.text:GPIO_clearInt)
                  01013acc    0000002c     simplelink.a : cc_pal.obj (.text:NwpPowerOn)
                  01013af8    0000002c     drivers_cc32xx.aem4 : PowerCC32XX.oem4 (.text:PowerCC32XX_getParkState)
                  01013b24    0000002c     dpl_cc32xx.aem4 : SemaphoreP_tirtos.oem4 (.text:SemaphoreP_createBinary)
                  01013b50    0000002c     simplelink.a : cc_pal.obj (.text:Semaphore_create_handle)
                  01013b7c    0000002c     mqtt_client_app.obj (.text:TimerPeriodicIntHandler)
                  01013ba8    0000002c     mqtt_client.a : mqtt_client.obj (.text:_sl_ExtLib_AwaitedAckLockedSet)
                  01013bd4    0000002c                   : client_core.obj (.text:mqpDoNotReportCor)
                  01013c00    0000002c                   : client_core.obj (.text:netClCtxFind)
                  01013c2c    0000002c     rtsv7M4_T_le_eabi.lib : strncmp.obj (.text)
                  01013c58    0000002c     release_pem4.oem4 (.text:ti_sysbios_knl_Clock_doTick__I)
                  01013c84    00000004     --HOLE-- [fill = 0]
                  01013c88    0000002c     sysbios.aem4 : BIOS.obj (.text:ti_sysbios_knl_Clock_getTimeout__E)
                  01013cb4    0000002c     release_pem4.oem4 (.text:ti_sysbios_knl_Queue_construct)
                  01013ce0    0000002c     sysbios.aem4 : BIOS.obj (.text:ti_sysbios_knl_Task_restore__E)
                  01013d0c    0000002c     mqtt_client.a : client_core.obj (.text:txPartBufP)
                  01013d38    0000002a                   : client_core.obj (.text:connSentStateRx)
                  01013d62    0000002a     rtsv7M4_T_le_eabi.lib : strspn.obj (.text)
                  01013d8c    00000028     mqtt_client.a : client_core.obj (.text:MQTT_bufWrNbo2B)
                  01013db4    00000028                   : mqtt_common.obj (.text:MQTT_bufWrNbo2B)
                  01013ddc    00000028                   : mqtt_common.obj (.text:MQTT_qos2PubCqReset)
                  01013e04    00000028     driverlib.a : prcm.obj (.text:PRCMPeripheralClkDisable)
                  01013e2c    00000028     dpl_cc32xx.aem4 : PowerCC32XX_tirtos.oem4 (.text:PowerCC32XX_initPolicy)
                  01013e54    00000028     drivers_cc32xx.aem4 : PowerCC32XX.oem4 (.text:Power_registerNotify)
                  01013e7c    00000028     simplelink.a : sl_socket.obj (.text:SL_SOCKET_FD_ISSET)
                  01013ea4    00000028                  : driver.obj (.text:_SlDrvProtectionObjLockWaitForever)
                  01013ecc    00000028                  : driver.obj (.text:_SlDrvProtectionObjUnLock)
                  01013ef4    00000028                  : driver.obj (.text:_SlDrvUpdateApiInProgress)
                  01013f1c    00000028                  : flowcont.obj (.text:_SlFlowContSet)
                  01013f44    00000004     --HOLE-- [fill = 0]
                  01013f48    00000028     sysbios.aem4 : BIOS.obj (.text:mq_receive)
                  01013f70    00000028                  : BIOS.obj (.text:ti_sysbios_knl_Clock_addI__E)
                  01013f98    00000028                  : BIOS.obj (.text:ti_sysbios_knl_Swi_Module_startup__E)
                  01013fc0    00000026     drivers_cc32xx.aem4 : List.oem4 (.text:List_put)
                  01013fe6    00000026     mqtt_client.a : client_core.obj (.text:MQTTClientCore_ctxRun)
                  0101400c    00000026                   : client_core.obj (.text:MQTTClientCore_sendConnectMsg)
                  01014032    00000026                   : client_core.obj (.text:isConnected)
                  01014058    00000026                   : cc32xx_sl_net.obj (.text:tcpSend)
                  0101407e    00000024                   : mqtt_common.obj (.text:MQTT_packetInit)
                  010140a2    00000024     simplelink.a : cc_pal.obj (.text:Mutex_create_handle)
                  010140c6    00000002     --HOLE-- [fill = 0]
                  010140c8    00000024                  : driver.obj (.text:_SlDrvIsApiInProgress)
                  010140ec    00000024                  : driver.obj (.text:_SlDrvStartMeasureTimeout)
                  01014110    00000024     sysbios.aem4 : BIOS.obj (.text:pthread_attr_init)
                  01014134    00000004     --HOLE-- [fill = 0]
                  01014138    00000024                  : BIOS.obj (.text:pthread_mutex_destroy)
                  0101415c    00000024     rtsv7M4_T_le_eabi.lib : memmov.obj (.text)
                  01014180    00000024                           : strcspn.obj (.text)
                  010141a4    00000024     simplelink.a : wlan.obj (.text:sl_WlanDisconnect)
                  010141c8    00000024     release_pem4.oem4 (.text:ti_sysbios_BIOS_registerRTSLock__I)
                  010141ec    00000024     release_pem4.oem4 (.text:ti_sysbios_BIOS_removeRTSLock__I)
                  01014210    00000024     sysbios.aem4 : BIOS.obj (.text:ti_sysbios_family_arm_m3_Timer_Module_startup__E)
                  01014234    00000004     --HOLE-- [fill = 0]
                  01014238    00000024                  : BIOS.obj (.text:ti_sysbios_family_arm_m3_Timer_postInit__I)
                  0101425c    00000004     --HOLE-- [fill = 0]
                  01014260    00000024                  : BIOS.obj (.text:ti_sysbios_family_arm_m3_Timer_startup__E)
                  01014284    00000024     release_pem4.oem4 (.text:ti_sysbios_gates_GateMutex_Object__delete__S)
                  010142a8    00000024     sysbios.aem4 : BIOS.obj (.text:ti_sysbios_knl_Clock_Module_startup__E)
                  010142cc    00000024     release_pem4.oem4 (.text:ti_sysbios_knl_Clock_Object__delete__S)
                  010142f0    00000024     sysbios.aem4 : BIOS.obj (.text:ti_sysbios_knl_Clock_start__E)
                  01014314    00000004     --HOLE-- [fill = 0]
                  01014318    00000024                  : BIOS.obj (.text:ti_sysbios_knl_Semaphore_Instance_init__E)
                  0101433c    00000024     release_pem4.oem4 (.text:ti_sysbios_knl_Semaphore_Object__delete__S)
                  01014360    00000024     sysbios.aem4 : BIOS.obj (.text:ti_sysbios_knl_Task_restoreHwi__E)
                  01014384    00000004     --HOLE-- [fill = 0]
                  01014388    00000024                  : BIOS.obj (.text:xdc_runtime_Error_policyMin__E)
                  010143ac    00000022     mqtt_client.a : mqtt_common.obj (.text:MQTT_packetFree)
                  010143ce    00000022     simplelink.a : sl_socket.obj (.text:SL_SOCKET_FD_SET)
                  010143f0    00000022     mqtt_client.a : client_core.obj (.text:_txPartReset)
                  01014412    00000020                   : mqtt_common.obj (.text:MQTT_secureConnStructInit)
                  01014432    00000002     --HOLE-- [fill = 0]
                  01014434    00000020     drivers_cc32xx.aem4 : PowerCC32XX.oem4 (.text:Power_unregisterNotify)
                  01014454    00000020                         : RingBuf.oem4 (.text:RingBuf_peek)
                  01014474    00000020     simplelink.a : driver.obj (.text:_SlDrvObjLockWaitForever)
                  01014494    00000020                  : driver.obj (.text:_SlDrvObjUnLock)
                  010144b4    00000020     drivers_cc32xx.aem4 : SPICC32XXDMA.oem4 (.text:getPowerMgrId)
                  010144d4    00000020                         : UARTCC32XX.oem4 (.text:getPowerMgrId)
                  010144f4    00000020     mqtt_client.a : client_core.obj (.text:groupCtxsAdjWaitSecsGet)
                  01014514    00000004     --HOLE-- [fill = 0]
                  01014518    00000020     sysbios.aem4 : BIOS.obj (.text:sleep)
                  01014538    00000020     release_pem4.oem4 (.text:ti_sysbios_BIOS_rtsLock__I)
                  01014558    00000020     release_pem4.oem4 (.text:ti_sysbios_family_arm_m3_Hwi_Object__delete__S)
                  01014578    00000020     sysbios.aem4 : BIOS.obj (.text:ti_sysbios_family_arm_m3_Hwi_clearInterrupt__E)
                  01014598    00000020                  : m3_Hwi_asm.obj (.text:ti_sysbios_family_arm_m3_Hwi_excHandlerAsm__I)
                  010145b8    00000020                  : BIOS.obj (.text:ti_sysbios_family_arm_m3_Hwi_excHandler__I)
                  010145d8    00000020     release_pem4.oem4 (.text:ti_sysbios_gates_GateHwi_Object__delete__S)
                  010145f8    00000020     release_pem4.oem4 (.text:ti_sysbios_heaps_HeapMem_Object__delete__S)
                  01014618    00000020     release_pem4.oem4 (.text:ti_sysbios_knl_Clock_destruct)
                  01014638    00000020     sysbios.aem4 : BIOS.obj (.text:ti_sysbios_knl_Idle_run__E)
                  01014658    00000020     release_pem4.oem4 (.text:ti_sysbios_knl_Semaphore_destruct)
                  01014678    00000020     release_pem4.oem4 (.text:ti_sysbios_knl_Task_Object__delete__S)
                  01014698    0000001e     mqtt_client.a : mqtt_common.obj (.text:MQTT_bufRdNbo2B)
                  010146b6    0000001e     simplelink.a : driver.obj (.text:_SlDrvSyncObjSignal)
                  010146d4    0000001e     mqtt_client.a : client_core.obj (.text:isValidUTF8String)
                  010146f2    0000001e     drivers_cc32xx.aem4 : UDMACC32XX.oem4 (.text:postNotifyFxn)
                  01014710    0000001e     sysbios.aem4 : m3_Hwi_asm_switch.obj (.text:ti_sysbios_family_xxx_Hwi_switchAndRunFunc)
                  0101472e    00000002     --HOLE-- [fill = 0]
                  01014730    0000001c     uart_term.obj (.text:Message)
                  0101474c    0000001c     driverlib.a : pin.obj (.text:PinToPadGet)
                  01014768    0000001c     simplelink.a : device.obj (.text:_SlDeviceGetStartResponseConvert)
                  01014784    0000001c     mqtt_client.a : client_core.obj (.text:clCtxFreeup)
                  010147a0    0000001c                   : client_core.obj (.text:getConnectVhLen)
                  010147bc    0000001c                   : client_core.obj (.text:mqpFree)
                  010147d8    0000001c     rtsv7M4_T_le_eabi.lib : memccpy.obj (.text)
                  010147f4    00000004     --HOLE-- [fill = 0]
                  010147f8    0000001c     sysbios.aem4 : BIOS.obj (.text:ti_sysbios_family_arm_m3_Timer_stop__E)
                  01014814    00000004     --HOLE-- [fill = 0]
                  01014818    0000001c                  : BIOS.obj (.text:ti_sysbios_gates_GateMutex_Instance_init__E)
                  01014834    00000004     --HOLE-- [fill = 0]
                  01014838    0000001c                  : BIOS.obj (.text:ti_sysbios_knl_Clock_Instance_finalize__E)
                  01014854    0000001c     release_pem4.oem4 (.text:ti_sysbios_knl_Queue_destruct)
                  01014870    0000001c     sysbios.aem4 : BIOS.obj (.text:ti_sysbios_knl_Queue_get__E)
                  0101488c    00000004     --HOLE-- [fill = 0]
                  01014890    0000001c                  : BIOS.obj (.text:ti_sysbios_knl_Queue_put__E)
                  010148ac    00000004     --HOLE-- [fill = 0]
                  010148b0    0000001c                  : BIOS.obj (.text:ti_sysbios_knl_Task_enter__I)
                  010148cc    00000004     --HOLE-- [fill = 0]
                  010148d0    0000001c                  : BIOS.obj (.text:timerThreadFxn$30)
                  010148ec    0000001c     mqtt_client.a : client_core.obj (.text:txPartReset)
                  01014908    0000001c                   : client_core.obj (.text:usedCtxsTOSort)
                  01014924    00000004     --HOLE-- [fill = 0]
                  01014928    0000001c     sysbios.aem4 : BIOS.obj (.text:usleep)
                  01014944    0000001a     mqtt_client.a : cc32xx_sl_net.obj (.text:commClose)
                  0101495e    0000001a     sysbios.aem4 : m3_Hwi_asm.obj (.text:ti_sysbios_family_arm_m3_Hwi_pendSV__I)
                  01014978    00000018     mqtt_client.a : mqtt_client.obj (.text:MQTTClient_subscribe)
                  01014990    00000018                   : mqtt_client.obj (.text:MQTTClient_unsubscribe)
                  010149a8    00000018     drivers_cc32xx.aem4 : PowerCC32XX.oem4 (.text:Power_idleFunc)
                  010149c0    00000018     driverlib.a : uart.obj (.text:UARTBusy)
                  010149d8    00000018                 : uart.obj (.text:UARTIntEnable)
                  010149f0    00000018     drivers_cc32xx.aem4 : UART.oem4 (.text:UART_Params_init)
                  01014a08    00000018     release_pem4.oem4 (.text:free)
                  01014a20    00000018     sysbios.aem4 : BIOS.obj (.text:pthread_attr_setschedparam)
                  01014a38    00000018     uart_term.obj (.text:putch)
                  01014a50    00000018     rtsv7M4_T_le_eabi.lib : args_main.obj (.text)
                  01014a68    00000018                           : ll_mul_t2.obj (.text)
                  01014a80    00000018                           : strcmp.obj (.text)
                  01014a98    00000018     release_pem4.oem4 (.text:ti_sysbios_BIOS_rtsUnlock__I)
                  01014ab0    00000018     release_pem4.oem4 (.text:ti_sysbios_family_arm_m3_Hwi_Module__startupDone__F)
                  01014ac8    00000018     release_pem4.oem4 (.text:ti_sysbios_family_arm_m3_Timer_Module__startupDone__F)
                  01014ae0    00000018     release_pem4.oem4 (.text:ti_sysbios_gates_GateHwi_Handle__label__S)
                  01014af8    00000018     release_pem4.oem4 (.text:ti_sysbios_gates_GateMutex_Handle__label__S)
                  01014b10    00000018     sysbios.aem4 : BIOS.obj (.text:ti_sysbios_gates_GateMutex_leave__E)
                  01014b28    00000018     release_pem4.oem4 (.text:ti_sysbios_heaps_HeapMem_Handle__label__S)
                  01014b40    00000018     sysbios.aem4 : BIOS.obj (.text:ti_sysbios_knl_Task_sleepTimeout__I)
                  01014b58    00000018                  : BIOS.obj (.text:xdc_runtime_Error_init__E)
                  01014b70    00000018                  : BIOS.obj (.text:xdc_runtime_System_exit__E)
                  01014b88    00000016     drivers_cc32xx.aem4 : List.oem4 (.text:List_remove)
                  01014b9e    00000016     mqtt_client.a : client_core.obj (.text:MQTTClientCore_sendSubMsg)
                  01014bb4    00000016                   : client_core.obj (.text:MQTTClientCore_sendUnsubMsg)
                  01014bca    00000016     driverlib.a : prcm.obj (.text:PRCMHIBRegRead)
                  01014be0    00000016                 : prcm.obj (.text:PRCMHIBRegWrite)
                  01014bf6    00000016     simplelink.a : driver.obj (.text:_SlDrvMemZero)
                  01014c0c    00000016     mqtt_client.a : client_core.obj (.text:ack2MsgIdLogup)
                  01014c22    00000016                   : client_core.obj (.text:qos2PubRxIsDone)
                  01014c38    00000016                   : client_core.obj (.text:qos2PubRxLogup)
                  01014c4e    00000016                   : client_core.obj (.text:qos2PubRxUnlog)
                  01014c64    00000016                   : cc32xx_sl_net.obj (.text:rtcSecs)
                  01014c7a    00000016     rtsv7M4_T_le_eabi.lib : strchr.obj (.text)
                  01014c90    00000016     release_pem4.oem4 (.text:ti_sysbios_BIOS_exitFunc__I)
                  01014ca6    00000002     --HOLE-- [fill = 0]
                  01014ca8    00000016     sysbios.aem4 : BIOS.obj (.text:timerFxn$30)
                  01014cbe    00000016     mqtt_client.a : client_core.obj (.text:txPartAddup)
                  01014cd4    00000014                   : client_core.obj (.text:MQTT_qos2PubCqCount)
                  01014ce8    00000014     drivers_cc32xx.aem4 : PowerCC32XX.oem4 (.text:Power_getDependencyCount)
                  01014cfc    00000014                         : SPI.oem4 (.text:SPI_Params_init)
                  01014d10    00000014                         : UARTCC32XX.oem4 (.text:releasePowerConstraint)
                  01014d24    00000014     rtsv7M4_T_le_eabi.lib : _lock.obj (.text)
                  01014d38    00000014                           : strcpy.obj (.text)
                  01014d4c    00000014                           : strlen.obj (.text)
                  01014d60    00000014     sysbios.aem4 : BIOS.obj (.text:sem_init)
                  01014d74    00000004     --HOLE-- [fill = 0]
                  01014d78    00000014                  : BIOS.obj (.text:sem_trywait)
                  01014d8c    00000014     release_pem4.oem4 (.text:ti_sysbios_family_arm_m3_Hwi_Object__get__S)
                  01014da0    00000014     sysbios.aem4 : BIOS.obj (.text:ti_sysbios_family_arm_m3_Hwi_switchFromBootStack__E)
                  01014db4    00000014     release_pem4.oem4 (.text:ti_sysbios_heaps_HeapMem_Object__get__S)
                  01014dc8    00000014     sysbios.aem4 : BIOS.obj (.text:ti_sysbios_knl_Clock_tickReconfig__E)
                  01014ddc    00000014     release_pem4.oem4 (.text:ti_sysbios_knl_Swi_Object__get__S)
                  01014df0    00000014     release_pem4.oem4 (.text:ti_sysbios_knl_Task_Object__first__S)
                  01014e04    00000014     release_pem4.oem4 (.text:ti_sysbios_knl_Task_Object__next__S)
                  01014e18    00000012     mqtt_client.a : client_core.obj (.text:MQTTClientCore_allocRecv)
                  01014e2a    00000012                   : client_core.obj (.text:MQTTClientCore_allocSend)
                  01014e3c    00000012     drivers_cc32xx.aem4 : RingBuf.oem4 (.text:RingBuf_construct)
                  01014e4e    00000012     dpl_cc32xx.aem4 : SemaphoreP_tirtos.oem4 (.text:SemaphoreP_pend)
                  01014e60    00000012     sysbios.aem4 : BIOS.obj (.text:ti_sysbios_hal_Hwi_Module_startup__E)
                  01014e72    00000012     release_pem4.oem4 (.text:xdc_runtime_Startup_exec__I)
                  01014e84    00000010     dpl_cc32xx.aem4 : HwiP_tirtos.oem4 (.text:HwiP_Params_init)
                  01014e94    00000010     mqtt_client_app.obj (.text:LedTimerDeinitStop)
                  01014ea4    00000010     simplelink.a : cc_pal.obj (.text:MutexP_delete_handle)
                  01014eb4    00000010                  : cc_pal.obj (.text:Mutex_unlock)
                  01014ec4    00000010                  : sl_socket.obj (.text:SL_SOCKET_FD_ZERO)
                  01014ed4    00000010                  : cc_pal.obj (.text:SemaphoreP_delete_handle)
                  01014ee4    00000010                  : cc_pal.obj (.text:SemaphoreP_post_handle)
                  01014ef4    00000010                  : driver.obj (.text:_SlDrvDispatchHttpServerEvents)
                  01014f04    00000010                  : driver.obj (.text:_SlDrvDispatchNetAppRequestEvents)
                  01014f14    00000010     mqtt_client.a : client_core.obj (.text:assignNewMsgID)
                  01014f24    00000010     CC3220SF_LAUNCHXL.obj (.text:dmaErrorFxn)
                  01014f34    00000010     mqtt_client.a : client_core.obj (.text:lenErrFreeMqp)
                  01014f44    00000010     drivers_cc32xx.aem4 : UARTCC32XX.oem4 (.text:readBlockingTimeout)
                  01014f54    00000004     --HOLE-- [fill = 0]
                  01014f58    00000010     sysbios.aem4 : BIOS.obj (.text:ti_sysbios_BIOS_getCpuFreq__E)
                  01014f68    00000010                  : BIOS.obj (.text:ti_sysbios_BIOS_setThreadType__E)
                  01014f78    00000010                  : BIOS.obj (.text:ti_sysbios_BIOS_start__E)
                  01014f88    00000010                  : m3_TaskSupport_asm.obj (.text:ti_sysbios_family_arm_m3_TaskSupport_glue)
                  01014f98    00000010                  : m3_TaskSupport_asm.obj (.text:ti_sysbios_family_arm_m3_TaskSupport_swap__E)
                  01014fa8    00000010                  : BIOS.obj (.text:ti_sysbios_gates_GateMutex_Instance_finalize__E)
                  01014fb8    00000010     release_pem4.oem4 (.text:ti_sysbios_knl_Mailbox_Object__get__S)
                  01014fc8    00000010     sysbios.aem4 : BIOS.obj (.text:ti_sysbios_knl_Semaphore_Instance_finalize__E)
                  01014fd8    00000010                  : BIOS.obj (.text:ti_sysbios_knl_Swi_disable__E)
                  01014fe8    00000010     release_pem4.oem4 (.text:ti_sysbios_knl_Task_Object__get__S)
                  01014ff8    00000010     sysbios.aem4 : BIOS.obj (.text:ti_sysbios_knl_Task_disable__E)
                  01015008    00000010                  : BIOS.obj (.text:xdc_runtime_Memory_free__E)
                  01015018    00000010                  : BIOS.obj (.text:xdc_runtime_SysCallback_abort__E)
                  01015028    00000010                  : BIOS.obj (.text:xdc_runtime_SysCallback_exit__E)
                  01015038    0000000e     simplelink.a : cc_pal.obj (.text:Mutex_lock)
                  01015046    0000000e                  : driver.obj (.text:_SlDrvResetCmdExt)
                  01015054    0000000e     rtsv7M4_T_le_eabi.lib : copy_decompress_none.obj (.text:decompress:none)
                  01015062    0000000e     drivers_cc32xx.aem4 : SPICC32XXDMA.oem4 (.text:postNotifyFxn)
                  01015070    0000000e     sysbios.aem4 : BIOS.obj (.text:pthread_attr_setdetachstate)
                  0101507e    00000002     --HOLE-- [fill = 0]
                  01015080    0000000e                  : BIOS.obj (.text:sem_wait)
                  0101508e    0000000e     simplelink.a : cc_pal.obj (.text:spi_Close)
                  0101509c    00000004     --HOLE-- [fill = 0]
                  010150a0    0000000e     sysbios.aem4 : BIOS.obj (.text:ti_sysbios_knl_Idle_loop__E)
                  010150ae    00000002     --HOLE-- [fill = 0]
                  010150b0    0000000e                  : BIOS.obj (.text:ti_sysbios_knl_Queue_empty__E)
                  010150be    0000000c     CC3220SF_LAUNCHXL.obj (.text:CC3220SF_LAUNCHXL_initGeneral)
                  010150ca    0000000c     dpl_cc32xx.aem4 : ClockP_tirtos.oem4 (.text:ClockP_delete)
                  010150d6    00000002     --HOLE-- [fill = 0]
                  010150d8    0000000c                     : ClockP_tirtos.oem4 (.text:ClockP_getSystemTickPeriod)
                  010150e4    0000000c                     : HwiP_tirtos.oem4 (.text:HwiP_delete)
                  010150f0    0000000c                     : MutexP_tirtos.oem4 (.text:MutexP_create)
                  010150fc    0000000c                     : MutexP_tirtos.oem4 (.text:MutexP_delete)
                  01015108    0000000c     network_if.obj (.text:Network_IF_ResetMCUStateMachine)
                  01015114    0000000c     simplelink.a : cc_pal.obj (.text:NwpMaskInterrupt)
                  01015120    0000000c                  : cc_pal.obj (.text:NwpUnMaskInterrupt)
                  0101512c    0000000c     drivers_cc32xx.aem4 : PowerCC32XX.oem4 (.text:Power_getConstraintMask)
                  01015138    0000000c     dpl_cc32xx.aem4 : SemaphoreP_tirtos.oem4 (.text:SemaphoreP_delete)
                  01015144    0000000c     network_if.obj (.text:SimpleLinkHttpServerEventHandler)
                  01015150    0000000c     network_if.obj (.text:SimpleLinkNetAppRequestEventHandler)
                  0101515c    0000000c     simplelink.a : device.obj (.text:_SlDeviceResetRequestInitCompletedCB)
                  01015168    0000000c     rtsv7M4_T_le_eabi.lib : copy_zero_init.obj (.text:decompress:ZI)
                  01015174    0000000c     mqtt_client.a : mqtt_client.obj (.text:mutexLockup)
                  01015180    0000000c                   : mqtt_client.obj (.text:mutexUnlock)
                  0101518c    0000000c     drivers_cc32xx.aem4 : UARTCC32XX.oem4 (.text:postNotifyFxn)
                  01015198    0000000c     release_pem4.oem4 (.text:ti_sysbios_family_arm_m3_Hwi_Params__init__S)
                  010151a4    00000004     --HOLE-- [fill = 0]
                  010151a8    0000000c     sysbios.aem4 : BIOS.obj (.text:ti_sysbios_family_arm_m3_Hwi_disableFxn__E)
                  010151b4    00000004     --HOLE-- [fill = 0]
                  010151b8    0000000c                  : BIOS.obj (.text:ti_sysbios_family_arm_m3_TaskSupport_getStackAlignment__E)
                  010151c4    00000004     --HOLE-- [fill = 0]
                  010151c8    0000000c                  : BIOS.obj (.text:ti_sysbios_gates_GateHwi_enter__E)
                  010151d4    0000000c     release_pem4.oem4 (.text:ti_sysbios_knl_Clock_Params__init__S)
                  010151e0    0000000c     sysbios.aem4 : BIOS.obj (.text:ti_sysbios_knl_Clock_getTicks__E)
                  010151ec    00000004     --HOLE-- [fill = 0]
                  010151f0    0000000c                  : BIOS.obj (.text:ti_sysbios_knl_Clock_setTicks__E)
                  010151fc    00000004     --HOLE-- [fill = 0]
                  01015200    0000000c                  : BIOS.obj (.text:ti_sysbios_knl_Clock_tickStart__E)
                  0101520c    00000004     --HOLE-- [fill = 0]
                  01015210    0000000c                  : BIOS.obj (.text:ti_sysbios_knl_Clock_tickStop__E)
                  0101521c    0000000c     release_pem4.oem4 (.text:ti_sysbios_knl_Queue_Object__get__S)
                  01015228    0000000c     release_pem4.oem4 (.text:ti_sysbios_knl_Semaphore_Params__init__S)
                  01015234    0000000c     release_pem4.oem4 (.text:ti_sysbios_knl_Task_Params__init__S)
                  01015240    0000000c     driverlib.a : udma.obj (.text:uDMAErrorStatusClear)
                  0101524c    0000000c                 : udma.obj (.text:uDMAErrorStatusGet)
                  01015258    0000000c     sysbios.aem4 : BIOS.obj (.text:xdc_runtime_Startup_rtsDone__E)
                  01015264    0000000a     drivers_cc32xx.aem4 : List.oem4 (.text:List_empty)
                  0101526e    0000000a                         : SPI.oem4 (.text:SPI_close)
                  01015278    0000000a                         : SPI.oem4 (.text:SPI_transfer)
                  01015282    0000000a     network_if.obj (.text:SimpleLinkNetAppRequestMemFreeEventHandler)
                  0101528c    0000000a     drivers_cc32xx.aem4 : UART.oem4 (.text:UART_control)
                  01015296    0000000a                         : UART.oem4 (.text:UART_readPolling)
                  010152a0    0000000a                         : UART.oem4 (.text:UART_writePolling)
                  010152aa    00000006     dpl_cc32xx.aem4 : ClockP_tirtos.oem4 (.text:ClockP_Params_init)
                  010152b0    0000000a     sysbios.aem4 : BIOS.obj (.text:pthread_mutex_lock)
                  010152ba    00000006     dpl_cc32xx.aem4 : MutexP_tirtos.oem4 (.text:MutexP_Params_init)
                  010152c0    0000000a     sysbios.aem4 : BIOS.obj (.text:sem_destroy)
                  010152ca    00000006     drivers_cc32xx.aem4 : SPICC32XXDMA.oem4 (.text:SPICC32XXDMA_control)
                  010152d0    0000000a     sysbios.aem4 : BIOS.obj (.text:sem_post)
                  010152da    0000000a     simplelink.a : device.obj (.text:sl_Task)
                  010152e4    0000000a     release_pem4.oem4 (.text:xdc_runtime_IHeap_alloc)
                  010152ee    0000000a     release_pem4.oem4 (.text:xdc_runtime_IHeap_free)
                  010152f8    00000008     dpl_cc32xx.aem4 : SemaphoreP_tirtos.oem4 (.text:SemaphoreP_Params_init)
                  01015300    00000008     simplelink.a : cc_pal.obj (.text:TimerGetCurrentTimestamp)
                  01015308    00000008     drivers_cc32xx.aem4 : SPICC32XXDMA.oem4 (.text:blockingTransferCallback)
                  01015310    00000008     sysbios.aem4 : BIOS.obj (.text:pthread_attr_setstacksize)
                  01015318    00000008     drivers_cc32xx.aem4 : UARTCC32XX.oem4 (.text:readSemCallback)
                  01015320    00000008     rtsv7M4_T_le_eabi.lib : s_copysign.obj (.text)
                  01015328    00000008     sysbios.aem4 : BIOS.obj (.text:ti_sysbios_family_arm_m3_Hwi_doSwiRestore__I)
                  01015330    00000008                  : BIOS.obj (.text:ti_sysbios_family_arm_m3_Hwi_startup__E)
                  01015338    00000008     drivers_cc32xx.aem4 : UARTCC32XX.oem4 (.text:writeSemCallback)
                  01015340    00000006     driverlib.a : utils.obj (.text:UtilsDelay)
                  01015346    00000002     --HOLE-- [fill = 0]
                  01015348    00000006     sysbios.aem4 : BIOS.obj (.text:ti_sysbios_family_arm_m3_Hwi_doTaskRestore__I)
                  0101534e    00000002     --HOLE-- [fill = 0]
                  01015350    00000006                  : BIOS.obj (.text:ti_sysbios_family_arm_m3_Hwi_restoreFxn__E)
                  01015356    00000002     --HOLE-- [fill = 0]
                  01015358    00000006                  : BIOS.obj (.text:ti_sysbios_gates_GateHwi_leave__E)
                  0101535e    00000002     --HOLE-- [fill = 0]
                  01015360    00000006                  : BIOS.obj (.text:ti_sysbios_heaps_HeapMem_isBlocking__E)
                  01015366    00000002     --HOLE-- [fill = 0]
                  01015368    00000006                  : BIOS.obj (.text:ti_sysbios_knl_Clock_stop__E)
                  0101536e    00000002     --HOLE-- [fill = 0]
                  01015370    00000006                  : BIOS.obj (.text:ti_sysbios_knl_Queue_Instance_init__E)
                  01015376    00000002     --HOLE-- [fill = 0]
                  01015378    00000006                  : BIOS.obj (.text:ti_sysbios_knl_Swi_startup__E)
                  0101537e    00000002     --HOLE-- [fill = 0]
                  01015380    00000006                  : BIOS.obj (.text:xdc_runtime_System_Module_startup__E)
                  01015386    00000002     --HOLE-- [fill = 0]
                  01015388    00000004                  : BIOS.obj (.text:ti_sysbios_family_arm_m3_Timer_getMaxTicks__E)
                  0101538c    00000004     --HOLE-- [fill = 0]
                  01015390    00000004                  : BIOS.obj (.text:ti_sysbios_gates_GateHwi_query__E)
                  01015394    00000004     --HOLE-- [fill = 0]
                  01015398    00000004                  : BIOS.obj (.text:ti_sysbios_gates_GateMutex_query__E)
                  0101539c    00000004     --HOLE-- [fill = 0]
                  010153a0    00000004                  : BIOS.obj (.text:ti_sysbios_knl_Clock_setTimeout__E)
                  010153a4    00000004     --HOLE-- [fill = 0]
                  010153a8    00000004                  : BIOS.obj (.text:ti_sysbios_knl_Task_startup__E)
                  010153ac    00000004     --HOLE-- [fill = 0]
                  010153b0    00000002                  : BIOS.obj (.text:ti_sysbios_BIOS_linkedWithIncorrectBootLibrary__E)
                  010153b2    00000006     --HOLE-- [fill = 0]
                  010153b8    00000002                  : BIOS.obj (.text:ti_sysbios_gates_GateHwi_Instance_init__E)
                  010153ba    00000006     --HOLE-- [fill = 0]
                  010153c0    00000002                  : BIOS.obj (.text:ti_sysbios_knl_Clock_logTick__E)
                  010153c2    00000006     --HOLE-- [fill = 0]
                  010153c8    00000002                  : BIOS.obj (.text:xdc_runtime_SysCallback_defaultAbort)
                  010153ca    00000006     --HOLE-- [fill = 0]
                  010153d0    00000002                  : BIOS.obj (.text:xdc_runtime_SysCallback_defaultExit)
                  010153d2    00000006     --HOLE-- [fill = 0]
                  010153d8    00000002                  : BIOS.obj (.text:xdc_runtime_System_abortSpin__E)
                  010153da    00000006     --HOLE-- [fill = 0]
                  010153e0    00000002                  : BIOS.obj (.text:xdc_runtime_System_exitSpin__E)

.const     0    010153e4    00000d32     
                  010153e4    00000101     rtsv7M4_T_le_eabi.lib : ctype.obj (.const:.string:_ctypes_)
                  010154e5    00000003     mqtt_client.a : mqtt_client.obj (.const:.string:$P$T0$1)
                  010154e8    00000100     driverlib.a : pin.obj (.const:g_ulPinToPadMap)
                  010155e8    000000e8     mqtt_client_app.obj (.const:.string)
                  010156d0    000000a8     driverlib.a : prcm.obj (.const:PRCM_PeriphRegsList)
                  01015778    00000078     CC3220SF_LAUNCHXL.obj (.const:spiCC3220SDMAHWAttrs)
                  010157f0    00000060     simplelink.a : driver.obj (.const:OpcodeTranslateTable)
                  01015850    00000050                  : driver.obj (.const:_SlActionLookupTable)
                  010158a0    00000048     release_pem4.oem4 (.const:.string)
                  010158e8    00000040     CC3220SF_LAUNCHXL.obj (.const:PowerCC32XX_config)
                  01015928    00000040     CC3220SF_LAUNCHXL.obj (.const:uartCC3220SHWAttrs)
                  01015968    0000003c     release_pem4.oem4 (.const:ti_sysbios_knl_Task_Object__PARAMS__C)
                  010159a4    00000034     release_pem4.oem4 (.const:ti_sysbios_knl_Mailbox_Object__PARAMS__C)
                  010159d8    00000030     release_pem4.oem4 (.const:ti_sysbios_family_arm_m3_Hwi_Object__PARAMS__C)
                  01015a08    00000028     drivers_cc32xx.aem4 : UARTCC32XX.oem4 (.const:UARTCC32XX_fxnTable)
                  01015a30    00000028     release_pem4.oem4 (.const:ti_sysbios_heaps_HeapMem_Module__FXNS__C)
                  01015a58    00000024     drivers_cc32xx.aem4 : UART.oem4 (.const:UART_defaultParams)
                  01015a7c    00000024     release_pem4.oem4 (.const:ti_sysbios_gates_GateHwi_Module__FXNS__C)
                  01015aa0    00000024     release_pem4.oem4 (.const:ti_sysbios_gates_GateMutex_Module__FXNS__C)
                  01015ac4    00000024     release_pem4.oem4 (.const:ti_sysbios_heaps_HeapMem_Object__PARAMS__C)
                  01015ae8    00000024     release_pem4.oem4 (.const:ti_sysbios_knl_Clock_Object__PARAMS__C)
                  01015b0c    00000024     release_pem4.oem4 (.const:ti_sysbios_knl_Semaphore_Object__PARAMS__C)
                  01015b30    00000021     drivers_cc32xx.aem4 : GPIOCC32XX.oem4 (.const:.string:pinTable)
                  01015b51    00000003     mqtt_client.a : mqtt_client.obj (.const:MQTTClient_qos)
                  01015b54    00000020     simplelink.a : driver.obj (.const:RxMsgClassLUT)
                  01015b74    00000020     drivers_cc32xx.aem4 : SPI.oem4 (.const:SPI_defaultParams)
                  01015b94    00000020     simplelink.a : device.obj (.const:StartResponseLUT)
                  01015bb4    00000020     drivers_cc32xx.aem4 : UARTCC32XX.oem4 (.const:staticFxnTable)
                  01015bd4    00000020     release_pem4.oem4 (.const:ti_sysbios_family_arm_m3_Hwi_Object__DESC__C)
                  01015bf4    00000020     release_pem4.oem4 (.const:ti_sysbios_gates_GateHwi_Object__DESC__C)
                  01015c14    00000020     release_pem4.oem4 (.const:ti_sysbios_gates_GateMutex_Object__DESC__C)
                  01015c34    00000020     release_pem4.oem4 (.const:ti_sysbios_heaps_HeapMem_Object__DESC__C)
                  01015c54    00000020     release_pem4.oem4 (.const:ti_sysbios_knl_Clock_Object__DESC__C)
                  01015c74    00000020     release_pem4.oem4 (.const:ti_sysbios_knl_Mailbox_Object__DESC__C)
                  01015c94    00000020     release_pem4.oem4 (.const:ti_sysbios_knl_Queue_Object__DESC__C)
                  01015cb4    00000020     release_pem4.oem4 (.const:ti_sysbios_knl_Semaphore_Object__DESC__C)
                  01015cd4    00000020     release_pem4.oem4 (.const:ti_sysbios_knl_Task_Object__DESC__C)
                  01015cf4    00000020     release_pem4.oem4 (.const:xdc_runtime_Startup_sfxnTab__A)
                  01015d14    00000018     drivers_cc32xx.aem4 : SPICC32XXDMA.oem4 (.const:SPICC32XXDMA_fxnTable)
                  01015d2c    00000018     CC3220SF_LAUNCHXL.obj (.const:SPI_config)
                  01015d44    00000018     CC3220SF_LAUNCHXL.obj (.const:UART_config)
                  01015d5c    00000018     release_pem4.oem4 (.const:ti_sysbios_gates_GateHwi_Object__PARAMS__C)
                  01015d74    00000018     release_pem4.oem4 (.const:ti_sysbios_gates_GateMutex_Object__PARAMS__C)
                  01015d8c    00000018     release_pem4.oem4 (.const:ti_sysbios_knl_Queue_Object__PARAMS__C)
                  01015da4    00000017     network_if.obj (.const:.string:$P$T2$3)
                  01015dbb    00000016     network_if.obj (.const:.string:$P$T0$1)
                  01015dd1    00000015     network_if.obj (.const:.string:$P$T1$2)
                  01015de6    00000002     mqtt_client.a : client_core.obj (.const:.string:MQTTClientCore_loopData)
                  01015de8    00000014     simplelink.a : cc_pal.obj (.const:$P$T0$1)
                  01015dfc    00000014                  : device.obj (.const:$P$T0$1)
                  01015e10    00000014                  : driver.obj (.const:$P$T0$1)
                  01015e24    00000014     mqtt_client_app.obj (.const:$P$T1$2)
                  01015e38    00000014     simplelink.a : cc_pal.obj (.const:$P$T1$2)
                  01015e4c    00000014     CC3220SF_LAUNCHXL.obj (.const:GPIOCC32XX_config)
                  01015e60    00000014     drivers_cc32xx.aem4 : GPIOCC32XX.oem4 (.const:gpioBaseAddresses)
                  01015e74    00000014                         : UARTCC32XX.oem4 (.const:parityType)
                  01015e88    00000014                         : GPIOCC32XX.oem4 (.const:powerResources)
                  01015e9c    00000010     mqtt_client.a : cc32xx_sl_net.obj (.const:$P$T0$1)
                  01015eac    00000010                   : cc32xx_sl_net.obj (.const:$P$T1$2)
                  01015ebc    00000010     network_if.obj (.const:$P$T3$4)
                  01015ecc    00000010     simplelink.a : sl_socket.obj (.const:_SlCtrlSockAddr)
                  01015edc    00000010                  : sl_socket.obj (.const:_SlCtrlSockRelese)
                  01015eec    00000010     drivers_cc32xx.aem4 : UARTCC32XX.oem4 (.const:dataLength)
                  01015efc    00000010     release_pem4.oem4 (.const:xdc_runtime_Startup_sfxnRts__A)
                  01015f0c    0000000d     CC3220SF_LAUNCHXL.obj (.const)
                  01015f19    00000001     release_pem4.oem4 (.const:ti_sysbios_knl_Clock_tickMode__C)
                  01015f1a    00000002     release_pem4.oem4 (.const:ti_sysbios_family_arm_m3_Hwi_Module__id__C)
                  01015f1c    0000000c     drivers_cc32xx.aem4 : SPICC32XXDMA.oem4 (.const:dmaNullConfig)
                  01015f28    0000000c                         : SPICC32XXDMA.oem4 (.const:dmaRxConfig)
                  01015f34    0000000c                         : SPICC32XXDMA.oem4 (.const:dmaTxConfig)
                  01015f40    0000000c     CC3220SF_LAUNCHXL.obj (.const:udmaCC3220SHWAttrs)
                  01015f4c    0000000c     release_pem4.oem4 (.const:xdc_runtime_Startup_firstFxns__A)
                  01015f58    00000008     mqtt_client_app.obj (.const:$P$T0$1)
                  01015f60    00000008     CC3220SF_LAUNCHXL.obj (.const:UDMACC32XX_config)
                  01015f68    00000008     simplelink.a : driver.obj (.const:g_H2NCnysPattern)
                  01015f70    00000008                  : driver.obj (.const:g_H2NSyncPattern)
                  01015f78    00000008     drivers_cc32xx.aem4 : SPICC32XXDMA.oem4 (.const:mode)
                  01015f80    00000008                         : GPIOCC32XX.oem4 (.const:outPinTypes)
                  01015f88    00000008                         : UARTCC32XX.oem4 (.const:stopBits)
                  01015f90    00000008     release_pem4.oem4 (.const:ti_sysbios_knl_Idle_funcList__A)
                  01015f98    00000008     release_pem4.oem4 (.const:ti_sysbios_knl_Idle_funcList__C)
                  01015fa0    00000008     release_pem4.oem4 (.const:xdc_runtime_Startup_firstFxns__C)
                  01015fa8    00000008     release_pem4.oem4 (.const:xdc_runtime_Startup_lastFxns__C)
                  01015fb0    00000006     drivers_cc32xx.aem4 : GPIOCC32XX.oem4 (.const:.string:interruptType)
                  01015fb6    00000006                         : GPIOCC32XX.oem4 (.const:inPinTypes)
                  01015fbc    00000006                         : GPIOCC32XX.oem4 (.const:outPinStrengths)
                  01015fc2    00000005     mqtt_client.a : client_core.obj (.const:.string:$P$T2$2)
                  01015fc7    00000001     release_pem4.oem4 (.const:ti_sysbios_knl_Clock_tickSource__C)
                  01015fc8    00000004     simplelink.a : sl_socket.obj (.const:$P$T0$1)
                  01015fcc    00000004                  : wlan.obj (.const:$P$T0$1)
                  01015fd0    00000004                  : sl_socket.obj (.const:$P$T1$2)
                  01015fd4    00000004                  : sl_socket.obj (.const:$P$T2$3)
                  01015fd8    00000004     mqtt_client.a : client_core.obj (.const:.string:$P$T1$1)
                  01015fdc    00000004     drivers_cc32xx.aem4 : GPIOCC32XX.oem4 (.const:.string:portInterruptIds)
                  01015fe0    00000004     simplelink.a : sl_socket.obj (.const:_SlAcceptCmdCtrl)
                  01015fe4    00000004                  : device.obj (.const:_SlDeviceGetCmdCtrl)
                  01015fe8    00000004                  : netapp.obj (.const:_SlGetHostByNameCtrl)
                  01015fec    00000004                  : sl_socket.obj (.const:_SlListenCmdCtrl)
                  01015ff0    00000004                  : netapp.obj (.const:_SlNetAppSendResponseCmdCtrl)
                  01015ff4    00000004                  : netapp.obj (.const:_SlNetAppSendTokenValueCmdCtrl)
                  01015ff8    00000004                  : netcfg.obj (.const:_SlNetCfgGetCmdCtrl)
                  01015ffc    00000004                  : sl_socket.obj (.const:_SlRecvCmdCtrl)
                  01016000    00000004                  : sl_socket.obj (.const:_SlRecvfomCmdCtrl)
                  01016004    00000004                  : sl_socket.obj (.const:_SlSelectCmdCtrl)
                  01016008    00000004                  : sl_socket.obj (.const:_SlSendCmdCtrl)
                  0101600c    00000004                  : sl_socket.obj (.const:_SlSetSockOptCmdCtrl)
                  01016010    00000004                  : sl_socket.obj (.const:_SlSockCloseCmdCtrl)
                  01016014    00000004                  : sl_socket.obj (.const:_SlSockSocketCmdCtrl)
                  01016018    00000004                  : device.obj (.const:_SlStopCmdCtrl)
                  0101601c    00000004                  : wlan.obj (.const:_SlWlanSetModeCmdCtrl)
                  01016020    00000004     release_pem4.oem4 (.const:ti_sysbios_family_arm_m3_Hwi_E_alreadyDefined__C)
                  01016024    00000004     release_pem4.oem4 (.const:ti_sysbios_family_arm_m3_Hwi_NUM_INTERRUPTS__C)
                  01016028    00000004     release_pem4.oem4 (.const:ti_sysbios_family_arm_m3_Hwi_Object__count__C)
                  0101602c    00000004     release_pem4.oem4 (.const:ti_sysbios_family_arm_m3_Hwi_ccr__C)
                  01016030    00000004     release_pem4.oem4 (.const:ti_sysbios_family_arm_m3_Hwi_excHandlerFunc__C)
                  01016034    00000004     release_pem4.oem4 (.const:ti_sysbios_family_arm_m3_Hwi_nullIsrFunc__C)
                  01016038    00000004     release_pem4.oem4 (.const:ti_sysbios_family_arm_m3_Hwi_priGroup__C)
                  0101603c    00000004     release_pem4.oem4 (.const:ti_sysbios_family_arm_m3_Hwi_swiDisable__C)
                  01016040    00000004     release_pem4.oem4 (.const:ti_sysbios_family_arm_m3_Hwi_swiRestoreHwi__C)
                  01016044    00000004     release_pem4.oem4 (.const:ti_sysbios_family_arm_m3_TaskSupport_stackAlignment__C)
                  01016048    00000004     release_pem4.oem4 (.const:ti_sysbios_family_arm_m3_Timer_E_cannotSupport__C)
                  0101604c    00000004     release_pem4.oem4 (.const:ti_sysbios_family_arm_m3_Timer_startupNeeded__C)
                  01016050    00000004     release_pem4.oem4 (.const:ti_sysbios_gates_GateMutex_Instance_State_sem__O)
                  01016054    00000004     release_pem4.oem4 (.const:ti_sysbios_heaps_HeapMem_E_memory__C)
                  01016058    00000004     release_pem4.oem4 (.const:ti_sysbios_heaps_HeapMem_Module__gateObj__C)
                  0101605c    00000004     release_pem4.oem4 (.const:ti_sysbios_heaps_HeapMem_Object__count__C)
                  01016060    00000004     release_pem4.oem4 (.const:ti_sysbios_heaps_HeapMem_primaryHeapBaseAddr__C)
                  01016064    00000004     release_pem4.oem4 (.const:ti_sysbios_heaps_HeapMem_primaryHeapEndAddr__C)
                  01016068    00000004     release_pem4.oem4 (.const:ti_sysbios_heaps_HeapMem_reqAlign__C)
                  0101606c    00000004     release_pem4.oem4 (.const:ti_sysbios_knl_Clock_Module_State_clockQ__O)
                  01016070    00000004     release_pem4.oem4 (.const:ti_sysbios_knl_Clock_tickPeriod__C)
                  01016074    00000004     release_pem4.oem4 (.const:ti_sysbios_knl_Mailbox_Instance_State_dataQue__O)
                  01016078    00000004     release_pem4.oem4 (.const:ti_sysbios_knl_Mailbox_Instance_State_dataSem__O)
                  0101607c    00000004     release_pem4.oem4 (.const:ti_sysbios_knl_Mailbox_Instance_State_freeQue__O)
                  01016080    00000004     release_pem4.oem4 (.const:ti_sysbios_knl_Mailbox_Instance_State_freeSem__O)
                  01016084    00000004     release_pem4.oem4 (.const:ti_sysbios_knl_Mailbox_Object__count__C)
                  01016088    00000004     release_pem4.oem4 (.const:ti_sysbios_knl_Mailbox_maxTypeAlign__C)
                  0101608c    00000004     release_pem4.oem4 (.const:ti_sysbios_knl_Semaphore_Instance_State_pendQ__O)
                  01016090    00000004     release_pem4.oem4 (.const:ti_sysbios_knl_Swi_Object__count__C)
                  01016094    00000004     release_pem4.oem4 (.const:ti_sysbios_knl_Task_E_deleteNotAllowed__C)
                  01016098    00000004     release_pem4.oem4 (.const:ti_sysbios_knl_Task_Module_State_inactiveQ__O)
                  0101609c    00000004     release_pem4.oem4 (.const:ti_sysbios_knl_Task_Module_State_terminatedQ__O)
                  010160a0    00000004     release_pem4.oem4 (.const:ti_sysbios_knl_Task_Object__count__C)
                  010160a4    00000004     release_pem4.oem4 (.const:ti_sysbios_knl_Task_Object__heap__C)
                  010160a8    00000004     release_pem4.oem4 (.const:ti_sysbios_knl_Task_allBlockedFunc__C)
                  010160ac    00000004     release_pem4.oem4 (.const:ti_sysbios_knl_Task_defaultStackHeap__C)
                  010160b0    00000004     release_pem4.oem4 (.const:ti_sysbios_knl_Task_defaultStackSize__C)
                  010160b4    00000004     release_pem4.oem4 (.const:ti_sysbios_knl_Task_numConstructedTasks__C)
                  010160b8    00000004     release_pem4.oem4 (.const:xdc_runtime_Error_E_memory__C)
                  010160bc    00000004     release_pem4.oem4 (.const:xdc_runtime_Error_policyFxn__C)
                  010160c0    00000004     release_pem4.oem4 (.const:xdc_runtime_IGateProvider_Interface__BASE__C)
                  010160c4    00000004     release_pem4.oem4 (.const:xdc_runtime_IHeap_Interface__BASE__C)
                  010160c8    00000004     release_pem4.oem4 (.const:xdc_runtime_IModule_Interface__BASE__C)
                  010160cc    00000004     release_pem4.oem4 (.const:xdc_runtime_Memory_defaultHeapInstance__C)
                  010160d0    00000004     release_pem4.oem4 (.const:xdc_runtime_Startup_execImpl__C)
                  010160d4    00000004     release_pem4.oem4 (.const:xdc_runtime_Startup_maxPasses__C)
                  010160d8    00000004     release_pem4.oem4 (.const:xdc_runtime_Startup_sfxnRts__C)
                  010160dc    00000004     release_pem4.oem4 (.const:xdc_runtime_Startup_sfxnTab__C)
                  010160e0    00000004     release_pem4.oem4 (.const:xdc_runtime_SysCallback_abortFxn__C)
                  010160e4    00000004     release_pem4.oem4 (.const:xdc_runtime_SysCallback_exitFxn__C)
                  010160e8    00000004     release_pem4.oem4 (.const:xdc_runtime_System_Module__gateObj__C)
                  010160ec    00000004     release_pem4.oem4 (.const:xdc_runtime_System_abortFxn__C)
                  010160f0    00000004     release_pem4.oem4 (.const:xdc_runtime_System_exitFxn__C)
                  010160f4    00000004     release_pem4.oem4 (.const:xdc_runtime_System_maxAtexitHandlers__C)
                  010160f8    00000004     release_pem4.oem4 (.const:xdc_runtime_Text_charTab__C)
                  010160fc    00000004     release_pem4.oem4 (.const:xdc_runtime_Text_nameEmpty__C)
                  01016100    00000004     release_pem4.oem4 (.const:xdc_runtime_Text_nameStatic__C)
                  01016104    00000004     release_pem4.oem4 (.const:xdc_runtime_Text_nameUnknown__C)
                  01016108    00000002     release_pem4.oem4 (.const:ti_sysbios_family_arm_m3_Timer_Module__id__C)
                  0101610a    00000002     release_pem4.oem4 (.const:ti_sysbios_heaps_HeapMem_Module__id__C)
                  0101610c    00000002     release_pem4.oem4 (.const:ti_sysbios_knl_Task_Module__id__C)
                  0101610e    00000002     release_pem4.oem4 (.const:xdc_runtime_Memory_Module__id__C)
                  01016110    00000002     release_pem4.oem4 (.const:xdc_runtime_Text_charCnt__C)
                  01016112    00000002     release_pem4.oem4 (.const:xdc_runtime_Text_isLoaded__C)
                  01016114    00000001     release_pem4.oem4 (.const:xdc_runtime_Error_policy__C)
                  01016115    00000001     release_pem4.oem4 (.const:xdc_runtime_Text_charTab__A)

.cinit     0    01016118    00000300     
                  01016118    000002d8     (.cinit..data.load) [load image, compression = lzss]
                  010163f0    0000000c     (__TI_handler_table)
                  010163fc    00000004     --HOLE-- [fill = 0]
                  01016400    00000008     (.cinit..bss.load) [load image, compression = zero_init]
                  01016408    00000010     (__TI_cinit_table)

.init_array 
*          0    01000800    00000000     UNINITIALIZED

.vecs      0    20000000    0000030c     NOLOAD SECTION
                  20000000    0000030c     release_pem4.oem4 (.vecs)

.priheap   0    20000310    00008000     UNINITIALIZED
                  20000310    00008000     --HOLE--

.bss       0    20008400    0000237f     UNINITIALIZED
                  20008400    00000800     mqtt_client.a : mqtt_client.obj (.bss:MQTTClient_buffer)
                  20008c00    000007d8     simplelink.a : driver.obj (.bss:g_StatMem)
                  200093d8    00000450     (.common:clients)
                  20009828    0000030c     (.common:ti_sysbios_family_arm_m3_Hwi_dispatchTable)
                  20009b34    00000094     (.common:g_SlInternalSpawnCB)
                  20009bc8    00000024     (.common:g_ucConnectionSSID)
                  20009bec    00000014     drivers_cc32xx.aem4 : UDMACC32XX.oem4 (.bss:postNotifyObj)
                  20009c00    00000400     CC3220SF_LAUNCHXL.obj (.bss:dmaControlTable)
                  2000a000    00000200     release_pem4.oem4 (.bss:taskStackSection)
                  2000a200    00000130     mqtt_client.a : mqtt_client.obj (.bss:SlMQTTClient_ctx)
                  2000a330    0000012c     (.common:PowerCC32XX_contextSave)
                  2000a45c    00000118     (.common:uartCC3220SObjects)
                  2000a574    00000088     (.common:spiCC3220SDMAObjects)
                  2000a5fc    00000048                   : mqtt_client.obj (.bss:MQTTClient_packet)
                  2000a644    00000044     (.common:MQTTClient_Lib_CB)
                  2000a688    00000040     (.common:uartCC3220SRingBuffer)
                  2000a6c8    00000020     drivers_cc32xx.aem4 : GPIOCC32XX.oem4 (.bss:gpioCallbackInfo)
                  2000a6e8    00000018     mqtt_client.a : client_core.obj (.bss:MQTTClientCore_recvHvec)
                  2000a700    00000014     drivers_cc32xx.aem4 : GPIOCC32XX.oem4 (.bss:powerNotifyObj)
                  2000a714    00000004                         : GPIOCC32XX.oem4 (.bss)
                  2000a718    0000000c     dpl_cc32xx.aem4 : PowerCC32XX_tirtos.oem4 (.bss)
                  2000a724    0000000c     (.common:DeviceCB)
                  2000a730    0000000c     (.common:MqttClientExmple_params)
                  2000a73c    0000000c     (.common:Msg)
                  2000a748    00000008     (.common:g_ucConnectionBSSID)
                  2000a750    00000008     (.common:udmaCC3220SObject)
                  2000a758    00000004     mqtt_client_app.obj (.bss)
                  2000a75c    00000004     uart_term.obj (.bss)
                  2000a760    00000008     (.common:spiCC3220SDMAscratchBuf)
                  2000a768    00000004     (.common:ClockP_tickPeriod)
                  2000a76c    00000004     (.common:GlobalLockObj)
                  2000a770    00000004     (.common:g_PBQueue)
                  2000a774    00000004     (.common:g_timer)
                  2000a778    00000002     (.common:MQTTClient_waitSecs)
                  2000a77a    00000002     (.common:g_usConnectIndex)
                  2000a77c    00000002     (.common:g_usTimerInts)
                  2000a77e    00000001     (.common:RxIrqCnt)

.data      0    2000a780    00000834     UNINITIALIZED
                  2000a780    0000016c     drivers_cc32xx.aem4 : PowerCC32XX.oem4 (.data:PowerCC32XX_module)
                  2000a8ec    000000f8     CC3220SF_LAUNCHXL.obj (.data:parkInfo)
                  2000a9e4    00000080     release_pem4.oem4 (.data:ti_sysbios_knl_Swi_Module_State_0_readyQ__A)
                  2000aa64    00000080     release_pem4.oem4 (.data:ti_sysbios_knl_Task_Module_State_0_readyQ__A)
                  2000aae4    00000070     sysbios.aem4 : BIOS.obj (.data:$O1$$)
                  2000ab54    0000004c     release_pem4.oem4 (.data:ti_sysbios_knl_Task_Object__table__V)
                  2000aba0    00000044     release_pem4.oem4 (.data:ti_sysbios_knl_Task_Module__state__V)
                  2000abe4    00000039     mqtt_client.a : client_core.obj (.data)
                  2000ac1d    00000003     mqtt_client_app.obj (.data:lineBreak)
                  2000ac20    00000038     release_pem4.oem4 (.data:ti_sysbios_gates_GateMutex_Object__table__V)
                  2000ac58    00000034     release_pem4.oem4 (.data:ti_sysbios_family_arm_m3_Hwi_Module__state__V)
                  2000ac8c    00000030     mqtt_client_app.obj (.data)
                  2000acbc    00000030     release_pem4.oem4 (.data:ti_sysbios_family_arm_m3_Timer_Object__table__V)
                  2000acec    00000030     release_pem4.oem4 (.data:ti_sysbios_knl_Swi_Object__table__V)
                  2000ad1c    0000002c     release_pem4.oem4 (.data:ti_sysbios_knl_Clock_Module__state__V)
                  2000ad48    00000028     mqtt_client.a : mqtt_client.obj (.data:MQTTClient_net)
                  2000ad70    00000024     simplelink.a : eventreg.obj (.data:g_LibsEvents)
                  2000ad94    00000024                  : eventreg.obj (.data:g_UserEvents)
                  2000adb8    00000024     release_pem4.oem4 (.data:ti_sysbios_BIOS_Module__state__V)
                  2000addc    00000020     release_pem4.oem4 (.data:xdc_runtime_Error_IgnoreBlock)
                  2000adfc    0000001c     release_pem4.oem4 (.data:ti_sysbios_knl_Swi_Module__state__V)
                  2000ae18    00000018     mqtt_client_app.obj (.data:Mqtt_ClientCtx)
                  2000ae30    00000018     release_pem4.oem4 (.data:ti_sysbios_family_arm_m3_Hwi_Object__table__V)
                  2000ae48    00000018     release_pem4.oem4 (.data:ti_sysbios_heaps_HeapMem_Object__table__V)
                  2000ae60    00000014     CC3220SF_LAUNCHXL.obj (.data:gpioPinConfigs)
                  2000ae74    00000010     mqtt_client_app.obj (.data:topic)
                  2000ae84    0000000d     mqtt_client_app.obj (.data:ClientId)
                  2000ae91    00000001     dpl_cc32xx.aem4 : PowerCC32XX_tirtos.oem4 (.data)
                  2000ae92    00000002     release_pem4.oem4 (.data:ti_sysbios_family_arm_m3_Hwi_Module_State_0_excActive__A)
                  2000ae94    0000000c     mqtt_client_app.obj (.data:SecurityParams)
                  2000aea0    0000000c     mqtt_client.a : mqtt_client.obj (.data:SlMQTTClient_clientCfg)
                  2000aeac    0000000c     network_if.obj (.data)
                  2000aeb8    0000000c     simplelink.a : driver.obj (.data)
                  2000aec4    0000000c     release_pem4.oem4 (.data:ti_sysbios_family_arm_m3_Timer_Module__state__V)
                  2000aed0    0000000c     mqtt_client_app.obj (.data:will_param)
                  2000aedc    00000009     mqtt_client.a : client_core.obj (.data:MQTTClientCore_mqtt310)
                  2000aee5    00000001     drivers_cc32xx.aem4 : SPI.oem4 (.data)
                  2000aee6    00000001                         : UART.oem4 (.data)
                  2000aee7    00000001     --HOLE--
                  2000aee8    00000009                         : GPIOCC32XX.oem4 (.data)
                  2000aef1    00000003     --HOLE--
                  2000aef4    00000009     mqtt_client.a : mqtt_client.obj (.data)
                  2000aefd    00000003     --HOLE--
                  2000af00    00000008     rtsv7M4_T_le_eabi.lib : _lock.obj (.data:$O1$$)
                  2000af08    00000008     drivers_cc32xx.aem4 : UDMACC32XX.oem4 (.data)
                  2000af10    00000008     CC3220SF_LAUNCHXL.obj (.data:gpioCallbackFunctions)
                  2000af18    00000008     release_pem4.oem4 (.data:ti_sysbios_family_arm_cc32xx_Seconds_Module__state__V)
                  2000af20    00000008     release_pem4.oem4 (.data:ti_sysbios_family_arm_m3_Hwi_Module__root__V)
                  2000af28    00000008     release_pem4.oem4 (.data:ti_sysbios_gates_GateHwi_Module__root__V)
                  2000af30    00000008     release_pem4.oem4 (.data:ti_sysbios_gates_GateMutex_Module__root__V)
                  2000af38    00000008     release_pem4.oem4 (.data:ti_sysbios_heaps_HeapMem_Module__root__V)
                  2000af40    00000008     release_pem4.oem4 (.data:ti_sysbios_knl_Clock_Module__root__V)
                  2000af48    00000008     release_pem4.oem4 (.data:ti_sysbios_knl_Mailbox_Module__root__V)
                  2000af50    00000008     release_pem4.oem4 (.data:ti_sysbios_knl_Queue_Module__root__V)
                  2000af58    00000008     release_pem4.oem4 (.data:ti_sysbios_knl_Semaphore_Module__root__V)
                  2000af60    00000008     release_pem4.oem4 (.data:ti_sysbios_knl_Task_Module__root__V)
                  2000af68    00000008     release_pem4.oem4 (.data:xdc_runtime_Startup_Module__state__V)
                  2000af70    00000008     release_pem4.oem4 (.data:xdc_runtime_System_Module_State_0_atexitHandlers__A)
                  2000af78    00000008     release_pem4.oem4 (.data:xdc_runtime_System_Module__state__V)
                  2000af80    00000007     mqtt_client.a : client_core.obj (.data:MQTTClientCore_mqtt311)
                  2000af87    00000001     --HOLE--
                  2000af88    00000004                   : mqtt_client.obj (.data:MQTTClient_connectCfg)
                  2000af8c    00000004     mqtt_client_app.obj (.data:qos)
                  2000af90    00000004     rtsv7M4_T_le_eabi.lib : errno.obj (.data)
                  2000af94    00000004                           : stkdepth_vars.obj (.data)
                  2000af98    00000004                           : strtok.obj (.data)
                  2000af9c    00000004     simplelink.a : cc_pal.obj (.data)
                  2000afa0    00000004     release_pem4.oem4 (.data:ti_sysbios_family_arm_m3_Hwi_Module_State_0_excContext__A)
                  2000afa4    00000004     release_pem4.oem4 (.data:ti_sysbios_family_arm_m3_Hwi_Module_State_0_excStack__A)
                  2000afa8    00000004     release_pem4.oem4 (.data:ti_sysbios_gates_GateHwi_Object__table__V)
                  2000afac    00000004     release_pem4.oem4 (.data:ti_sysbios_knl_Task_Module_State_0_idleTask__A)
                  2000afb0    00000004     release_pem4.oem4 (.data:xdc_runtime_Memory_Module__state__V)

.stack     0    2003fc00    00000400     UNINITIALIZED
                  2003fc00    00000400     --HOLE--

.bootVecs 
*          0    00000000    00000008     DSECT
                  00000000    00000008     boot.aem4 : boot.oem4 (.bootVecs)

xdc.meta   0    00000000    00000105     COPY SECTION
                  00000000    00000105     release_pem4.oem4 (xdc.meta)

xdc.noload 
*          0    00000000    00000000     COPY SECTION

MODULE SUMMARY

       Module                     code    ro data   rw data
       ------                     ----    -------   -------
    .\
       mqtt_client_app.obj        4313    260       158    
       network_if.obj             3404    82        58     
       CC3220SF_LAUNCHXL.obj      28      349       1796   
       client_cbs.obj             828     0         0      
       uart_term.obj              674     0         4      
       main_tirtos.obj            104     0         0      
    +--+--------------------------+-------+---------+---------+
       Total:                     9351    691       2016   
                                                           
    C:\Users\Enzo\workspace_v7\tirtos_builds_CC3220SF_LAUNCHXL_release_ccs\Debug\configPkg\package\cfg\
       release_pem4.oem4          1860    1214      3002   
    +--+--------------------------+-------+---------+---------+
       Total:                     1860    1214      3002   
                                                           
    C:/ti/simplelink_cc32xx_sdk_1_50_00_06/kernel/tirtos/packages/ti/dpl/lib/dpl_cc32xx.aem4
       PowerCC32XX_tirtos.oem4    536     0         13     
       SemaphoreP_tirtos.oem4     146     0         0      
       ClockP_tirtos.oem4         118     0         4      
       HwiP_tirtos.oem4           108     0         0      
       MutexP_tirtos.oem4         38      0         0      
    +--+--------------------------+-------+---------+---------+
       Total:                     946     0         17     
                                                           
    C:/ti/simplelink_cc32xx_sdk_1_50_00_06/source/ti/devices/cc32xx/driverlib/ccs/Release/driverlib.a
       prcm.obj                   1604    168       0      
       pin.obj                    144     256       0      
       flash.obj                  72      0         0      
       uart.obj                   48      0         0      
       udma.obj                   24      0         0      
       utils.obj                  6       0         0      
    +--+--------------------------+-------+---------+---------+
       Total:                     1898    424       0      
                                                           
    C:/ti/simplelink_cc32xx_sdk_1_50_00_06/source/ti/drivers/lib/drivers_cc32xx.aem4
       UARTCC32XX.oem4            3298    116       0      
       PowerCC32XX.oem4           2280    0         664    
       SPICC32XXDMA.oem4          2000    68        0      
       GPIOCC32XX.oem4            1400    103       65     
       UDMACC32XX.oem4            270     0         28     
       UART.oem4                  182     36        1      
       SPI.oem4                   168     32        1      
       RingBuf.oem4               184     0         0      
       PowerCC32XX_asm.oem4       150     0         0      
       List.oem4                  78      0         0      
    +--+--------------------------+-------+---------+---------+
       Total:                     10010   355       759    
                                                           
    C:/ti/simplelink_cc32xx_sdk_1_50_00_06/source/ti/drivers/net/wifi/ccs/rtos/simplelink.a
       driver.obj                 10224   244       2025   
       sl_socket.obj              5926    80        12     
       netapp.obj                 1942    12        0      
       device.obj                 1538    60        12     
       cc_pal.obj                 992     40        4      
       wlan.obj                   740     8         0      
       eventreg.obj               656     0         72     
       spawn.obj                  572     0         148    
       netcfg.obj                 192     4         0      
       netutil.obj                152     0         0      
       flowcont.obj               40      0         0      
    +--+--------------------------+-------+---------+---------+
       Total:                     22974   448       2273   
                                                           
    C:/ti/simplelink_cc32xx_sdk_1_50_00_06/source/ti/net/mqtt/ccs/client_TIRTOS/mqtt_client.a
       client_core.obj            9585    11        1201   
       mqtt_client.obj            3928    6         2559   
       mqtt_common.obj            2526    0         0      
       cc32xx_sl_net.obj          1870    32        0      
    +--+--------------------------+-------+---------+---------+
       Total:                     17909   49        3760   
                                                           
    C:\Users\Enzo\workspace_v7\tirtos_builds_CC3220SF_LAUNCHXL_release_ccs\src\sysbios\sysbios.aem4
       BIOS.obj                   11142   0         112    
       m3_Hwi_asm.obj             262     0         0      
       m3_TaskSupport_asm.obj     108     0         0      
       m3_Hwi_asm_switch.obj      102     0         0      
    +--+--------------------------+-------+---------+---------+
       Total:                     11614   0         112    
                                                           
    C:\ti\ccsv7\tools\compiler\ti-cgt-arm_16.9.4.LTS\lib\rtsv7M4_T_le_eabi.lib
       _printfi.obj               4386    0         0      
       ull_div_t2.obj             500     0         0      
       fd_add_t2.obj              438     0         0      
       fd_div_t2.obj              310     0         0      
       fd_cmp_t2.obj              268     0         0      
       ctype.obj                  0       257       0      
       fd_mul_t2.obj              252     0         0      
       s_scalbn.obj               208     0         0      
       memcpy_t2.obj              156     0         0      
       vsnprintf.obj              136     0         0      
       memset_t2.obj              122     0         0      
       copy_decompress_lzss.obj   104     0         0      
       s_frexp.obj                92      0         0      
       ltoa.obj                   84      0         0      
       atoi.obj                   76      0         0      
       cpy_tbl.obj                76      0         0      
       fd_toi_t2.obj              72      0         0      
       strtok.obj                 64      0         4      
       strncpy.obj                54      0         0      
       i_tofd_t2.obj              46      0         0      
       strncmp.obj                44      0         0      
       strspn.obj                 42      0         0      
       memmov.obj                 36      0         0      
       strcspn.obj                36      0         0      
       _lock.obj                  20      0         8      
       memccpy.obj                28      0         0      
       args_main.obj              24      0         0      
       ll_mul_t2.obj              24      0         0      
       strcmp.obj                 24      0         0      
       strchr.obj                 22      0         0      
       strcpy.obj                 20      0         0      
       strlen.obj                 20      0         0      
       copy_decompress_none.obj   14      0         0      
       copy_zero_init.obj         12      0         0      
       s_copysign.obj             8       0         0      
       errno.obj                  0       0         4      
       stkdepth_vars.obj          0       0         4      
    +--+--------------------------+-------+---------+---------+
       Total:                     7818    257       20     
                                                           
    C:\ti\simplelink_cc32xx_sdk_1_50_00_06\kernel\tirtos\packages\ti\targets\arm\rtsarm\lib\auto_init.aem4
       auto_init.oem4             160     0         0      
    +--+--------------------------+-------+---------+---------+
       Total:                     160     0         0      
                                                           
    C:\ti\simplelink_cc32xx_sdk_1_50_00_06\kernel\tirtos\packages\ti\targets\arm\rtsarm\lib\boot.aem4
       boot.oem4                  68      0         0      
    +--+--------------------------+-------+---------+---------+
       Total:                     68      0         0      
                                                           
       Stack:                     0       0         1024   
       Linker Generated:          0       764       0      
    +--+--------------------------+-------+---------+---------+
       Grand Total:               84608   4202      12983  


LINKER GENERATED COPY TABLES

__TI_cinit_table @ 01016408 records: 2, size/record: 8, table size: 16
	.data: load addr=01016118, load size=000002d8 bytes, run addr=2000a780, run size=00000834 bytes, compression=lzss
	.bss: load addr=01016400, load size=00000008 bytes, run addr=20008400, run size=0000237f bytes, compression=zero_init


LINKER GENERATED HANDLER TABLE

__TI_handler_table @ 010163f0 records: 3, size/record: 4, table size: 12
	index: 0, handler: __TI_decompress_lzss
	index: 1, handler: __TI_decompress_none
	index: 2, handler: __TI_zero_init


GLOBAL SYMBOLS: SORTED ALPHABETICALLY BY Name 

address   name                                                            
-------   ----                                                            
01015f0c  ADC_count                                                       
010150bf  CC3220SF_LAUNCHXL_initGeneral                                   
2000ae84  ClientId                                                        
2000aca8  ClientPassword                                                  
2000aca4  ClientUsername                                                  
010152ab  ClockP_Params_init                                              
01011c49  ClockP_create                                                   
010150cb  ClockP_delete                                                   
01006b25  ClockP_getCpuFreq                                               
010150d9  ClockP_getSystemTickPeriod                                      
010151e1  ClockP_getSystemTicks                                           
010088cd  ClockP_setTimeout                                               
0100996d  ClockP_start                                                    
0100af85  ClockP_stop                                                     
2000a768  ClockP_tickPeriod                                               
01015f0d  CryptoCC32XX_count                                              
2000a724  DeviceCB                                                        
010047ed  DisplayAppBanner                                                
01015f0e  Display_count                                                   
01011c91  FlashDisable                                                    
01015e4c  GPIOCC32XX_config                                               
01013aa1  GPIO_clearInt                                                   
01011699  GPIO_disableInt                                                 
010116e5  GPIO_enableInt                                                  
0100f04d  GPIO_hwiIntFxn                                                  
0100b451  GPIO_init                                                       
01010a39  GPIO_setCallback                                                
01005d85  GPIO_setConfig                                                  
010100c9  GPIO_toggle                                                     
01010a91  GPIO_write                                                      
0100a9bd  GetCmd                                                          
2000a76c  GlobalLockObj                                                   
00008000  HEAPSIZE                                                        
01014e85  HwiP_Params_init                                                
0100b2bd  HwiP_clearInterrupt                                             
01012825  HwiP_create                                                     
010150e5  HwiP_delete                                                     
0100b99d  HwiP_disable                                                    
0100cba5  HwiP_disableInterrupt                                           
0100d1ed  HwiP_enableInterrupt                                            
01015351  HwiP_restore                                                    
01015f0f  I2C_count                                                       
01015f10  I2S_count                                                       
01010d51  InitTerm                                                        
01012865  InitializeAppVariables                                          
01011cd9  LedTimerConfigNStart                                            
01014e95  LedTimerDeinitStop                                              
01015265  List_empty                                                      
0100d4fd  List_head                                                       
0100d765  List_next                                                       
01013fc1  List_put                                                        
01014b89  List_remove                                                     
01010325  MQTTClientCore_alloc                                            
0100b1f5  MQTTClientCore_createCtx                                        
01013fe7  MQTTClientCore_ctxRun                                           
0100fc55  MQTTClientCore_deleteCtx                                        
0100dc8d  MQTTClientCore_exitLib                                          
01008a01  MQTTClientCore_initLib                                          
0100e05d  MQTTClientCore_registerBuffers                                  
0100f8e9  MQTTClientCore_registerCtxInfo                                  
01010da5  MQTTClientCore_registerNetSvc                                   
0100e5ab  MQTTClientCore_registerWillInfo                                 
0101062d  MQTTClientCore_run                                              
0101400d  MQTTClientCore_sendConnectMsg                                   
0100fcbd  MQTTClientCore_sendDisconn                                      
0100db6d  MQTTClientCore_sendPubMsg                                       
01014b9f  MQTTClientCore_sendSubMsg                                       
01014bb5  MQTTClientCore_sendUnsubMsg                                     
2000a644  MQTTClient_Lib_CB                                               
2000aef8  MQTTClient_clientContext                                        
2000aef4  MQTTClient_closeContext                                         
01005435  MQTTClient_connect                                              
2000af88  MQTTClient_connectCfg                                           
01009649  MQTTClient_create                                               
0100c23d  MQTTClient_delete                                               
010111e5  MQTTClient_disconnect                                           
2000aefc  MQTTClient_multiSrvConn                                         
2000ad48  MQTTClient_net                                                  
010139e9  MQTTClient_publish                                              
0100e0e5  MQTTClient_run                                                  
0100e631  MQTTClient_set                                                  
01014979  MQTTClient_subscribe                                            
01014991  MQTTClient_unsubscribe                                          
2000a778  MQTTClient_waitSecs                                             
01006cb1  MQTT_PacketRecv                                                 
01011d21  MQTT_SendMsgToQueue                                             
01010cf9  MQTT_clCtxRemove                                                
01013653  MQTT_clCtxReset                                                 
0100f5d7  MQTT_clCtxTimeoutInsert                                         
010128a5  MQTT_clCtxTimeoutUpdate                                         
01013237  MQTT_packetAckWlistAppend                                       
01013589  MQTT_packetAckWlistPurge                                        
0100f647  MQTT_packetAckWlistRemove                                       
0101044b  MQTT_packetBufRdRemlen                                          
01010387  MQTT_packetBufTailWrRemlen                                      
0101326d  MQTT_packetBufWrUtf8                                            
010143ad  MQTT_packetFree                                                 
0101407f  MQTT_packetInit                                                 
0100f22d  MQTT_packetPrepFh                                               
010132a3  MQTT_packetProcMsgIdAckRx                                       
0100cc4d  MQTT_packetProcPubRx                                            
0100df49  MQTT_packetPubAppendData                                        
0100c189  MQTT_packetPubAppendTopic                                       
010133b5  MQTT_packetReset                                                
0100f319  MQTT_qos2PubCqCheck                                             
01011731  MQTT_qos2PubCqLogup                                             
01013ddd  MQTT_qos2PubCqReset                                             
01011049  MQTT_qos2PubCqUnlog                                             
01014413  MQTT_secureConnStructInit                                       
01014731  Message                                                         
01004a25  MqttClient                                                      
01002d89  MqttClientCallback                                              
01007b0d  MqttClientConfig                                                
010045a1  MqttClientCtxCreate                                             
0101177d  MqttClientCtxDelete                                             
2000a730  MqttClientExmple_params                                         
01009f8d  MqttClientSub                                                   
0100e6b5  MqttClientThread                                                
0100c2ed  MqttClientUnsub                                                 
0100a805  MqttClient_send                                                 
01003e81  MqttClient_start                                                
2000ae18  Mqtt_ClientCtx                                                  
0100cd91  Mqtt_ClientStop                                                 
01007efd  Mqtt_IF_Connect                                                 
0100ad15  Mqtt_Stop                                                       
01008041  Mqtt_start                                                      
2000a73c  Msg                                                             
010152bb  MutexP_Params_init                                              
010150f1  MutexP_create                                                   
010150fd  MutexP_delete                                                   
01014ea5  MutexP_delete_handle                                            
0100e16d  MutexP_lock                                                     
0100ead5  MutexP_unlock                                                   
010140a3  Mutex_create_handle                                             
01015039  Mutex_lock                                                      
01014eb5  Mutex_unlock                                                    
010030c5  Network_IF_ConnectAP                                            
01012ca5  Network_IF_DisconnectFromAP                                     
010040e9  Network_IF_InitDriver                                           
0100c90d  Network_IF_IpConfigGet                                          
01015109  Network_IF_ResetMCUStateMachine                                 
01015115  NwpMaskInterrupt                                                
0100b69d  NwpPowerOff                                                     
01013acd  NwpPowerOn                                                      
01011235  NwpRegisterInterruptHandler                                     
01015121  NwpUnMaskInterrupt                                              
010117c9  NwpWaitForShutDownInd                                           
010157f0  OpcodeTranslateTable                                            
010021d1  PRCMCC3200MCUInit                                               
01014bcb  PRCMHIBRegRead                                                  
01014be1  PRCMHIBRegWrite                                                 
01011d69  PRCMLPDSEnter                                                   
010130e5  PRCMLPDSEnterKeepDebugIf                                        
010123e1  PRCMLPDSRestoreInfoSet                                          
01013e05  PRCMPeripheralClkDisable                                        
01011db1  PRCMPeripheralClkEnable                                         
01010ae9  PRCMPeripheralReset                                             
010104ad  PRCMSysResetCauseGet                                            
01015f11  PWM_count                                                       
010133e9  PinModeGet                                                      
010128e5  PinModeSet                                                      
0101474d  PinToPadGet                                                     
010158e8  PowerCC32XX_config                                              
0100c9b5  PowerCC32XX_configureWakeup                                     
2000a330  PowerCC32XX_contextSave                                         
01012425  PowerCC32XX_enterLPDS                                           
01013af9  PowerCC32XX_getParkState                                        
01013e2d  PowerCC32XX_initPolicy                                          
2000a780  PowerCC32XX_module                                              
0101109b  PowerCC32XX_parkPin                                             
0101341d  PowerCC32XX_restoreParkState                                    
010132d9  PowerCC32XX_restoreParkedPin                                    
010110ed  PowerCC32XX_resumeLPDS                                          
0100fd25  PowerCC32XX_setParkState                                        
01006649  PowerCC32XX_sleepPolicy                                         
0101512d  Power_getConstraintMask                                         
01014ce9  Power_getDependencyCount                                        
010149a9  Power_idleFunc                                                  
0100f0c5  Power_init                                                      
01013e55  Power_registerNotify                                            
01011df9  Power_releaseConstraint                                         
01010b41  Power_releaseDependency                                         
01012ce1  Power_setConstraint                                             
01010689  Power_setDependency                                             
010091fd  Power_sleep                                                     
01014435  Power_unregisterNotify                                          
0100c70d  Report                                                          
01014e3d  RingBuf_construct                                               
01012925  RingBuf_get                                                     
01014455  RingBuf_peek                                                    
01012309  RingBuf_put                                                     
2000a77e  RxIrqCnt                                                        
01015f12  SDFatFS_count                                                   
01015f14  SDSPI_count                                                     
01015f13  SD_count                                                        
UNDEFED   SHT$$INIT_ARRAY$$Base                                           
UNDEFED   SHT$$INIT_ARRAY$$Limit                                          
01013e7d  SL_SOCKET_FD_ISSET                                              
010143cf  SL_SOCKET_FD_SET                                                
01014ec5  SL_SOCKET_FD_ZERO                                               
0100ade5  SPICC32XXDMA_close                                              
010152cb  SPICC32XXDMA_control                                            
01015d14  SPICC32XXDMA_fxnTable                                           
0100eb5d  SPICC32XXDMA_init                                               
0100770d  SPICC32XXDMA_open                                               
01005f51  SPICC32XXDMA_transfer                                           
0100a279  SPICC32XXDMA_transferCancel                                     
01014cfd  SPI_Params_init                                                 
0101526f  SPI_close                                                       
01015d2c  SPI_config                                                      
01015f15  SPI_count                                                       
01015b74  SPI_defaultParams                                               
01012469  SPI_init                                                        
01012d1d  SPI_open                                                        
01015279  SPI_transfer                                                    
2000ae94  SecurityParams                                                  
010152f9  SemaphoreP_Params_init                                          
01012d59  SemaphoreP_create                                               
01013b25  SemaphoreP_createBinary                                         
01015139  SemaphoreP_delete                                               
01014ed5  SemaphoreP_delete_handle                                        
01014e4f  SemaphoreP_pend                                                 
0100ee5d  SemaphoreP_post                                                 
01014ee5  SemaphoreP_post_handle                                          
01013b51  Semaphore_create_handle                                         
0100be05  SetClientIdNamefromMacAddress                                   
01005619  SimpleLinkFatalErrorEventHandler                                
01012965  SimpleLinkGeneralEventHandler                                   
01015145  SimpleLinkHttpServerEventHandler                                
01006e31  SimpleLinkNetAppEventHandler                                    
01015151  SimpleLinkNetAppRequestEventHandler                             
01015283  SimpleLinkNetAppRequestMemFreeEventHandler                      
01009e8d  SimpleLinkSockEventHandler                                      
010059d5  SimpleLinkWlanEventHandler                                      
2000aea0  SlMQTTClient_clientCfg                                          
01015301  TimerGetCurrentTimestamp                                        
01013b7d  TimerPeriodicIntHandler                                         
01015f16  Timer_count                                                     
0100d59d  TrimSpace                                                       
010149c1  UARTBusy                                                        
01008fc1  UARTCC32XX_close                                                
0100a36b  UARTCC32XX_control                                              
01015a08  UARTCC32XX_fxnTable                                             
01001963  UARTCC32XX_init                                                 
01003969  UARTCC32XX_open                                                 
010129a5  UARTCC32XX_read                                                 
0101330f  UARTCC32XX_readCancel                                           
0100beb9  UARTCC32XX_readPolling                                          
0100b75d  UARTCC32XX_write                                                
0100fffd  UARTCC32XX_writeCancel                                          
010103e9  UARTCC32XX_writePolling                                         
010149d9  UARTIntEnable                                                   
010149f1  UART_Params_init                                                
01015d44  UART_config                                                     
0101528d  UART_control                                                    
01015f17  UART_count                                                      
01015a58  UART_defaultParams                                              
010124ad  UART_init                                                       
01012d95  UART_open                                                       
01015297  UART_readPolling                                                
010152a1  UART_writePolling                                               
01013485  UDMACC32XX_close                                                
01015f60  UDMACC32XX_config                                               
010129e5  UDMACC32XX_init                                                 
0100ed65  UDMACC32XX_open                                                 
01015341  UtilsDelay                                                      
01015f18  Watchdog_count                                                  
01015850  _SlActionLookupTable                                            
01009a7d  _SlDeviceEventHandler                                           
01011e41  _SlDeviceFatalErrorEvtHdlr                                      
01011e89  _SlDeviceGeneralEvtHdlr                                         
0100c39d  _SlDeviceHandleAsync_InitComplete                               
0100fd8d  _SlDeviceHandleAsync_Stop                                       
0100f959  _SlDeviceHandleResetRequestInternally                           
0101515d  _SlDeviceResetRequestInitCompletedCB                            
01011ed1  _SlDrvBasicCmd                                                  
01009b81  _SlDrvCmdOp                                                     
0100f9c5  _SlDrvCmdSend_noLock                                            
01011815  _SlDrvCmdSend_noWait                                            
01004e51  _SlDrvDataReadOp                                                
01006fb1  _SlDrvDataWriteOp                                               
01014ef5  _SlDrvDispatchHttpServerEvents                                  
01014f05  _SlDrvDispatchNetAppRequestEvents                               
01007c5d  _SlDrvDriverCBDeinit                                            
01004c49  _SlDrvDriverCBInit                                              
0100dd19  _SlDrvDriverIsApiAllowed                                        
01012a25  _SlDrvGlobalObjUnLock                                           
0100c44d  _SlDrvHandleFatalError                                          
010140c9  _SlDrvIsApiInProgress                                           
0100e419  _SlDrvIsTimeoutExpired                                          
01014bf7  _SlDrvMemZero                                                   
01009755  _SlDrvMsgReadSpawnCtx                                           
01014475  _SlDrvObjLockWaitForever                                        
01014495  _SlDrvObjUnLock                                                 
01011861  _SlDrvProtectAsyncRespSetting                                   
01013ea5  _SlDrvProtectionObjLockWaitForever                              
01013ecd  _SlDrvProtectionObjUnLock                                       
01005bad  _SlDrvReleasePoolObj                                            
01015047  _SlDrvResetCmdExt                                               
010112d5  _SlDrvRxIrqHandler                                              
010140ed  _SlDrvStartMeasureTimeout                                       
010146b7  _SlDrvSyncObjSignal                                             
01013685  _SlDrvSyncObjWaitForever                                        
01011f19  _SlDrvSyncObjWaitTimeout                                        
010067fd  _SlDrvWaitForPoolObj                                            
01013f1d  _SlFlowContSet                                                  
0100b81d  _SlInternalSpawn                                                
010072b1  _SlInternalSpawnTaskEntry                                       
01012a65  _SlIsEventRegistered                                            
01005241  _SlNetAppEventHandler                                           
01011f61  _SlNetAppEvtHdlr                                                
0100d9bd  _SlNetAppHandleAsync_DnsGetHostByName                           
01009315  _SlNetAppHandleAsync_DnsGetHostByService                        
0100aa95  _SlNetAppHandleAsync_NetAppReceive                              
0100da4d  _SlNetAppHandleAsync_PingResponse                               
01011325  _SlNetAppHttpServerHdlr                                         
01011375  _SlNetAppRequestHdlr                                            
01011fa9  _SlNetAppRequestMemFree                                         
0100ba61  _SlNetAppSendResponse                                           
01015ff0  _SlNetAppSendResponseCmdCtrl                                    
0100fa9d  _SlNetAppSendTokenValue                                         
01015ff4  _SlNetAppSendTokenValueCmdCtrl                                  
0100d635  _SlNetUtilHandleAsync_Cmd                                       
01011ff1  _SlSockEvtHdlr                                                  
0100fdf5  _SlSocketHandleAsync_Accept                                     
0100e739  _SlSocketHandleAsync_Close                                      
0100e7bd  _SlSocketHandleAsync_Connect                                    
010025fd  _SlSocketHandleAsync_Select                                     
01012039  _SlWlanEvtHdlr                                                  
00000000  __ASM__                                                         
0000007e  __ISA__                                                         
00000091  __PLAT__                                                        
20040000  __STACK_END                                                     
00000400  __STACK_SIZE                                                    
000000b8  __TARG__                                                        
01016408  __TI_CINIT_Base                                                 
01016418  __TI_CINIT_Limit                                                
010163f0  __TI_Handler_Table_Base                                         
010163fc  __TI_Handler_Table_Limit                                        
0100ce31  __TI_auto_init                                                  
0100fe5d  __TI_decompress_lzss                                            
01015055  __TI_decompress_none                                            
ffffffff  __TI_pprof_out_hndl                                             
01001079  __TI_printfi                                                    
ffffffff  __TI_prof_data_size                                             
ffffffff  __TI_prof_data_start                                            
01016118  __TI_static_base__                                              
01015169  __TI_zero_init                                                  
000000dd  __TRDR__                                                        
0100e49f  __aeabi_cdcmpeq                                                 
0100e49f  __aeabi_cdcmple                                                 
0100e525  __aeabi_cdrcmple                                                
01012111  __aeabi_d2iz                                                    
0100649b  __aeabi_dadd                                                    
01008531  __aeabi_ddiv                                                    
0100a089  __aeabi_dmul                                                    
01006491  __aeabi_dsub                                                    
01013a45  __aeabi_i2d                                                     
01014a69  __aeabi_lmul                                                    
0100efd3  __aeabi_memclr                                                  
0100efd3  __aeabi_memclr4                                                 
0100efd3  __aeabi_memclr8                                                 
0100d461  __aeabi_memcpy                                                  
0100d461  __aeabi_memcpy4                                                 
0100d461  __aeabi_memcpy8                                                 
0100efd5  __aeabi_memset                                                  
0100efd5  __aeabi_memset4                                                 
0100efd5  __aeabi_memset8                                                 
0100504d  __aeabi_uldivmod                                                
ffffffff  __binit__                                                       
ffffffff  __c_args__                                                      
20008310  __primary_heap_end__                                            
20000310  __primary_heap_start__                                          
2003fc00  __stack                                                         
01014a51  _args_main                                                      
010124f1  _c_int00                                                        
010153e4  _ctypes_                                                        
2000af00  _lock                                                           
01014d33  _nop                                                            
0100ee61  _pthread_abstime2ticks                                          
0100d1f1  _pthread_removeThreadKeys                                       
0100e841  _pthread_runStub                                                
01014d2b  _register_lock                                                  
01014d25  _register_unlock                                                
01013ba9  _sl_ExtLib_AwaitedAckLockedSet                                  
01013a17  _sl_ExtLib_AwaitedAckSet                                        
010118ad  _sl_ExtLib_ServerAckLockedWait                                  
2000af04  _unlock                                                         
2000acb8  appThread                                                       
01011945  atoi                                                            
ffffffff  binit                                                           
200093d8  clients                                                         
0100b2c1  clock_gettime                                                   
01014945  commClose                                                       
01009429  commOpen                                                        
01011991  copy_in                                                         
01015321  copysign                                                        
01015321  copysignl                                                       
2000abf4  debugPrintf                                                     
2000af90  errno                                                           
01013a73  ff_memalloc                                                     
01014a09  ff_memfree                                                      
0100ee5d  ff_rel_grant                                                    
01014a09  free                                                            
01010741  frexp                                                           
01010741  frexpl                                                          
2000ac8c  gApConnectionState                                              
2000aeb9  gGlobalLockCntReleased                                          
2000aeb8  gGlobalLockCntRequested                                         
2000ac90  gInitState                                                      
2000ac98  gResetApplication                                               
2000aca0  gUiConnFlag                                                     
2000ad70  g_LibsEvents                                                    
2000a770  g_PBQueue                                                       
2000aeba  g_SlDeviceStatus                                                
20009b34  g_SlInternalSpawnCB                                             
2000ad94  g_UserEvents                                                    
2000af9c  g_intHandle                                                     
2000aebc  g_pCB                                                           
2000ac9c  g_rx_task_hndl                                                  
2000a774  g_timer                                                         
2000a748  g_ucConnectionBSSID                                             
20009bc8  g_ucConnectionSSID                                              
2000aeb0  g_ulGatewayIP                                                   
2000aeac  g_ulStaIp                                                       
2000aeb4  g_ulStatus                                                      
2000a77a  g_usConnectIndex                                                
2000a77c  g_usTimerInts                                                   
2000af10  gpioCallbackFunctions                                           
2000ae60  gpioPinConfigs                                                  
01015fb6  inPinTypes                                                      
0100aeb5  ldexp                                                           
0100aeb5  ldexpl                                                          
2000ac1d  lineBreak                                                       
01010df9  ltoa                                                            
0100ff2d  main                                                            
010036c1  mainThread                                                      
2000af94  main_func_sp                                                    
01013a73  malloc                                                          
2000ac94  memPtrCounterfree                                               
010147d9  memccpy                                                         
0100d461  memcpy                                                          
0101415d  memmove                                                         
0100efdb  memset                                                          
01013121  mq_close                                                        
01006b29  mq_open                                                         
01013f49  mq_receive                                                      
01013349  mq_timedsend                                                    
2000acb4  mqttThread                                                      
01015175  mutexLockup                                                     
01015181  mutexUnlock                                                     
01015fbc  outPinStrengths                                                 
01015f80  outPinTypes                                                     
2000aec0  pPingCallBackFunc                                               
2000a8ec  parkInfo                                                        
01013719  printBorder                                                     
01014111  pthread_attr_init                                               
01015071  pthread_attr_setdetachstate                                     
01014a21  pthread_attr_setschedparam                                      
01015311  pthread_attr_setstacksize                                       
0100e171  pthread_cancel                                                  
0100a631  pthread_create                                                  
0100fb09  pthread_exit                                                    
01014139  pthread_mutex_destroy                                           
01010259  pthread_mutex_init                                              
010152b1  pthread_mutex_lock                                              
01012ae9  pthread_mutex_unlock                                            
01013191  pthread_setschedparam                                           
2000acb0  publish_data                                                    
2000acac  publish_topic                                                   
01012b29  pushButtonInterruptHandler2                                     
0100f13d  pushButtonInterruptHandler3                                     
01014a39  putch                                                           
2000af8c  qos                                                             
01012c27  realloc                                                         
0100d3c5  recvFrom                                                        
01014c65  rtcSecs                                                         
0100aeb5  scalbn                                                          
0100aeb5  scalbnl                                                         
010152c1  sem_destroy                                                     
01014d61  sem_init                                                        
010152d1  sem_post                                                        
01014d79  sem_trywait                                                     
01015081  sem_wait                                                        
0100ec67  sendTo                                                          
010062d5  sl_Accept                                                       
0100cb01  sl_Bind                                                         
01009861  sl_Close                                                        
01006999  sl_Connect                                                      
0100bd4d  sl_DeviceGet                                                    
0101275f  sl_Htonl                                                        
01012e85  sl_Htons                                                        
01010c49  sl_Listen                                                       
01008669  sl_NetAppDnsGetHostByName                                       
0100b8dd  sl_NetCfgGet                                                    
0100debd  sl_Recv                                                         
01007865  sl_RecvFrom                                                     
0100434d  sl_Select                                                       
0100bb1d  sl_Send                                                         
0100a185  sl_SendTo                                                       
0100e9cd  sl_SetSockOpt                                                   
0100f1b5  sl_Socket                                                       
01008e9d  sl_Start                                                        
010075a1  sl_Stop                                                         
010152db  sl_Task                                                         
01003c0d  sl_WlanConnect                                                  
010141a5  sl_WlanDisconnect                                               
01011a29  sl_WlanSetMode                                                  
01014519  sleep                                                           
01015778  spiCC3220SDMAHWAttrs                                            
2000a574  spiCC3220SDMAObjects                                            
2000a760  spiCC3220SDMAscratchBuf                                         
0101508f  spi_Close                                                       
01011465  spi_Open                                                        
0100d0b1  spi_Read                                                        
0100d14f  spi_Write                                                       
01014c7b  strchr                                                          
01014a81  strcmp                                                          
01014d39  strcpy                                                          
01014181  strcspn                                                         
01014d4d  strlen                                                          
01013c2d  strncmp                                                         
0101337f  strncpy                                                         
01013d63  strspn                                                          
01012b69  strtok                                                          
0100f401  tcpAccept                                                       
0100dfd3  tcpListen                                                       
0101056d  tcpRecv                                                         
0100a71d  tcpSelect                                                       
01014059  tcpSend                                                         
2000adb8  ti_sysbios_BIOS_Module__state__V                                
01014af9  ti_sysbios_BIOS_RtsGateProxy_Handle__label__S                   
0100f475  ti_sysbios_BIOS_RtsGateProxy_enter__E                           
0100f4ed  ti_sysbios_BIOS_RtsGateProxy_leave__E                           
01015399  ti_sysbios_BIOS_RtsGateProxy_query__E                           
01013749  ti_sysbios_BIOS_atExitFunc__I                                   
01014c91  ti_sysbios_BIOS_exitFunc__I                                     
01014f59  ti_sysbios_BIOS_getCpuFreq__E                                   
010153b1  ti_sysbios_BIOS_linkedWithIncorrectBootLibrary__E               
01005433  ti_sysbios_BIOS_nullFunc__I                                     
010141c9  ti_sysbios_BIOS_registerRTSLock__I                              
010141ed  ti_sysbios_BIOS_removeRTSLock__I                                
01014539  ti_sysbios_BIOS_rtsLock__I                                      
01014a99  ti_sysbios_BIOS_rtsUnlock__I                                    
01014f69  ti_sysbios_BIOS_setThreadType__E                                
01013779  ti_sysbios_BIOS_startFunc__I                                    
01014f79  ti_sysbios_BIOS_start__E                                        
2000af18  ti_sysbios_family_arm_cc32xx_Seconds_Module__state__V           
01010ca1  ti_sysbios_family_arm_cc32xx_Seconds_getCount__I                
010114b9  ti_sysbios_family_arm_cc32xx_Seconds_getTime__E                 
01016020  ti_sysbios_family_arm_m3_Hwi_E_alreadyDefined__C                
01012ec1  ti_sysbios_family_arm_m3_Hwi_Instance_finalize__E               
0100d769  ti_sysbios_family_arm_m3_Hwi_Instance_init__E                   
2000ae92  ti_sysbios_family_arm_m3_Hwi_Module_State_0_excActive__A        
2000afa0  ti_sysbios_family_arm_m3_Hwi_Module_State_0_excContext__A       
2000afa4  ti_sysbios_family_arm_m3_Hwi_Module_State_0_excStack__A         
01015f1a  ti_sysbios_family_arm_m3_Hwi_Module__id__C                      
2000af20  ti_sysbios_family_arm_m3_Hwi_Module__root__V                    
01014ab1  ti_sysbios_family_arm_m3_Hwi_Module__startupDone__F             
01014ab1  ti_sysbios_family_arm_m3_Hwi_Module__startupDone__S             
2000ac58  ti_sysbios_family_arm_m3_Hwi_Module__state__V                   
01011509  ti_sysbios_family_arm_m3_Hwi_Module_startup__E                  
01016024  ti_sysbios_family_arm_m3_Hwi_NUM_INTERRUPTS__C                  
01015bd4  ti_sysbios_family_arm_m3_Hwi_Object__DESC__C                    
010159d8  ti_sysbios_family_arm_m3_Hwi_Object__PARAMS__C                  
01016028  ti_sysbios_family_arm_m3_Hwi_Object__count__C                   
01014559  ti_sysbios_family_arm_m3_Hwi_Object__delete__S                  
01014d8d  ti_sysbios_family_arm_m3_Hwi_Object__get__S                     
2000ae30  ti_sysbios_family_arm_m3_Hwi_Object__table__V                   
01015199  ti_sysbios_family_arm_m3_Hwi_Params__init__S                    
0101602c  ti_sysbios_family_arm_m3_Hwi_ccr__C                             
01014579  ti_sysbios_family_arm_m3_Hwi_clearInterrupt__E                  
01010e4d  ti_sysbios_family_arm_m3_Hwi_create                             
0100fb75  ti_sysbios_family_arm_m3_Hwi_delete                             
010151a9  ti_sysbios_family_arm_m3_Hwi_disableFxn__E                      
01012159  ti_sysbios_family_arm_m3_Hwi_disableInterrupt__E                
010102c1  ti_sysbios_family_arm_m3_Hwi_dispatchC__I                       
20009828  ti_sysbios_family_arm_m3_Hwi_dispatchTable                      
0100b129  ti_sysbios_family_arm_m3_Hwi_dispatch__I                        
01015329  ti_sysbios_family_arm_m3_Hwi_doSwiRestore__I                    
01015349  ti_sysbios_family_arm_m3_Hwi_doTaskRestore__I                   
010121a1  ti_sysbios_family_arm_m3_Hwi_enableInterrupt__E                 
01014599  ti_sysbios_family_arm_m3_Hwi_excHandlerAsm__I                   
01016030  ti_sysbios_family_arm_m3_Hwi_excHandlerFunc__C                  
010145b9  ti_sysbios_family_arm_m3_Hwi_excHandler__I                      
01012601  ti_sysbios_family_arm_m3_Hwi_getStackInfo__E                    
0100e281  ti_sysbios_family_arm_m3_Hwi_initNVIC__E                        
010121e9  ti_sysbios_family_arm_m3_Hwi_initStacks__E                      
0100b1d9  ti_sysbios_family_arm_m3_Hwi_interruptsAreDisabledButShouldNotBe
01016034  ti_sysbios_family_arm_m3_Hwi_nullIsrFunc__C                     
e000e000  ti_sysbios_family_arm_m3_Hwi_nvic                               
0101495f  ti_sysbios_family_arm_m3_Hwi_pendSV__I                          
0100ea51  ti_sysbios_family_arm_m3_Hwi_postInit__I                        
01016038  ti_sysbios_family_arm_m3_Hwi_priGroup__C                        
20000000  ti_sysbios_family_arm_m3_Hwi_ramVectors                         
01000800  ti_sysbios_family_arm_m3_Hwi_resetVectors                       
01015351  ti_sysbios_family_arm_m3_Hwi_restoreFxn__E                      
01014977  ti_sysbios_family_arm_m3_Hwi_return                             
01015331  ti_sysbios_family_arm_m3_Hwi_startup__E                         
0101603c  ti_sysbios_family_arm_m3_Hwi_swiDisable__C                      
01016040  ti_sysbios_family_arm_m3_Hwi_swiRestoreHwi__C                   
01014da1  ti_sysbios_family_arm_m3_Hwi_switchFromBootStack__E             
0100fbe5  ti_sysbios_family_arm_m3_TaskSupport_Module__startupDone__S     
01011a75  ti_sysbios_family_arm_m3_TaskSupport_buildTaskStack             
010151b9  ti_sysbios_family_arm_m3_TaskSupport_getStackAlignment__E       
01014f89  ti_sysbios_family_arm_m3_TaskSupport_glue                       
01016044  ti_sysbios_family_arm_m3_TaskSupport_stackAlignment__C          
010137a9  ti_sysbios_family_arm_m3_TaskSupport_start__E                   
01014f99  ti_sysbios_family_arm_m3_TaskSupport_swap__E                    
01016048  ti_sysbios_family_arm_m3_Timer_E_cannotSupport__C               
01016108  ti_sysbios_family_arm_m3_Timer_Module__id__C                    
01014ac9  ti_sysbios_family_arm_m3_Timer_Module__startupDone__F           
01014ac9  ti_sysbios_family_arm_m3_Timer_Module__startupDone__S           
2000aec4  ti_sysbios_family_arm_m3_Timer_Module__state__V                 
01014211  ti_sysbios_family_arm_m3_Timer_Module_startup__E                
2000acbc  ti_sysbios_family_arm_m3_Timer_Object__table__V                 
01015389  ti_sysbios_family_arm_m3_Timer_getMaxTicks__E                   
01012231  ti_sysbios_family_arm_m3_Timer_initDevice__I                    
01013521  ti_sysbios_family_arm_m3_Timer_periodicStub__I                  
01014239  ti_sysbios_family_arm_m3_Timer_postInit__I                      
01012f01  ti_sysbios_family_arm_m3_Timer_setPeriodMicroSecs__E            
01010ea1  ti_sysbios_family_arm_m3_Timer_setPeriod__E                     
010107a1  ti_sysbios_family_arm_m3_Timer_start__E                         
0101604c  ti_sysbios_family_arm_m3_Timer_startupNeeded__C                 
01014261  ti_sysbios_family_arm_m3_Timer_startup__E                       
010147f9  ti_sysbios_family_arm_m3_Timer_stop__E                          
01014711  ti_sysbios_family_xxx_Hwi_switchAndRunFunc                      
01014ae1  ti_sysbios_gates_GateHwi_Handle__label__S                       
010153b9  ti_sysbios_gates_GateHwi_Instance_init__E                       
01015a7c  ti_sysbios_gates_GateHwi_Module__FXNS__C                        
2000af28  ti_sysbios_gates_GateHwi_Module__root__V                        
01015bf4  ti_sysbios_gates_GateHwi_Object__DESC__C                        
01015d5c  ti_sysbios_gates_GateHwi_Object__PARAMS__C                      
010137d9  ti_sysbios_gates_GateHwi_Object__create__S                      
010145d9  ti_sysbios_gates_GateHwi_Object__delete__S                      
2000afa8  ti_sysbios_gates_GateHwi_Object__table__V                       
010151c9  ti_sysbios_gates_GateHwi_enter__E                               
01015359  ti_sysbios_gates_GateHwi_leave__E                               
01015391  ti_sysbios_gates_GateHwi_query__E                               
01014af9  ti_sysbios_gates_GateMutex_Handle__label__S                     
01016050  ti_sysbios_gates_GateMutex_Instance_State_sem__O                
01014fa9  ti_sysbios_gates_GateMutex_Instance_finalize__E                 
01014819  ti_sysbios_gates_GateMutex_Instance_init__E                     
01015aa0  ti_sysbios_gates_GateMutex_Module__FXNS__C                      
2000af30  ti_sysbios_gates_GateMutex_Module__root__V                      
01015c14  ti_sysbios_gates_GateMutex_Object__DESC__C                      
01015d74  ti_sysbios_gates_GateMutex_Object__PARAMS__C                    
01013809  ti_sysbios_gates_GateMutex_Object__create__S                    
01014285  ti_sysbios_gates_GateMutex_Object__delete__S                    
2000ac20  ti_sysbios_gates_GateMutex_Object__table__V                     
01013839  ti_sysbios_gates_GateMutex_create                               
010102bd  ti_sysbios_gates_GateMutex_delete                               
01013869  ti_sysbios_gates_GateMutex_enter__E                             
01014b11  ti_sysbios_gates_GateMutex_leave__E                             
01015399  ti_sysbios_gates_GateMutex_query__E                             
01014ab1  ti_sysbios_hal_Hwi_HwiProxy_Module__startupDone__S              
01015199  ti_sysbios_hal_Hwi_HwiProxy_Params__init__S                     
01014579  ti_sysbios_hal_Hwi_HwiProxy_clearInterrupt__E                   
01012159  ti_sysbios_hal_Hwi_HwiProxy_disableInterrupt__E                 
010151a9  ti_sysbios_hal_Hwi_HwiProxy_disable__E                          
010121a1  ti_sysbios_hal_Hwi_HwiProxy_enableInterrupt__E                  
01012601  ti_sysbios_hal_Hwi_HwiProxy_getStackInfo__E                     
01015351  ti_sysbios_hal_Hwi_HwiProxy_restore__E                          
01015331  ti_sysbios_hal_Hwi_HwiProxy_startup__E                          
01014da1  ti_sysbios_hal_Hwi_HwiProxy_switchFromBootStack__E              
01014e61  ti_sysbios_hal_Hwi_Module_startup__E                            
01013621  ti_sysbios_hal_Hwi_initStack                                    
010114b9  ti_sysbios_hal_Seconds_SecondsProxy_getTime__E                  
01016054  ti_sysbios_heaps_HeapMem_E_memory__C                            
01014b29  ti_sysbios_heaps_HeapMem_Handle__label__S                       
01012ba9  ti_sysbios_heaps_HeapMem_Instance_init__E                       
01014af9  ti_sysbios_heaps_HeapMem_Module_GateProxy_Handle__label__S      
0101079d  ti_sysbios_heaps_HeapMem_Module_GateProxy_enter__E              
010107fd  ti_sysbios_heaps_HeapMem_Module_GateProxy_leave__E              
01015399  ti_sysbios_heaps_HeapMem_Module_GateProxy_query__E              
01015a30  ti_sysbios_heaps_HeapMem_Module__FXNS__C                        
01016058  ti_sysbios_heaps_HeapMem_Module__gateObj__C                     
0101610a  ti_sysbios_heaps_HeapMem_Module__id__C                          
2000af38  ti_sysbios_heaps_HeapMem_Module__root__V                        
01015c34  ti_sysbios_heaps_HeapMem_Object__DESC__C                        
01015ac4  ti_sysbios_heaps_HeapMem_Object__PARAMS__C                      
0101605c  ti_sysbios_heaps_HeapMem_Object__count__C                       
01013899  ti_sysbios_heaps_HeapMem_Object__create__S                      
010145f9  ti_sysbios_heaps_HeapMem_Object__delete__S                      
01014db5  ti_sysbios_heaps_HeapMem_Object__get__S                         
2000ae48  ti_sysbios_heaps_HeapMem_Object__table__V                       
0100af89  ti_sysbios_heaps_HeapMem_alloc__E                               
0100ead9  ti_sysbios_heaps_HeapMem_free__E                                
01011ac1  ti_sysbios_heaps_HeapMem_getStats__E                            
0100f729  ti_sysbios_heaps_HeapMem_initPrimary__I                         
01015361  ti_sysbios_heaps_HeapMem_isBlocking__E                          
01016060  ti_sysbios_heaps_HeapMem_primaryHeapBaseAddr__C                 
01016064  ti_sysbios_heaps_HeapMem_primaryHeapEndAddr__C                  
01016068  ti_sysbios_heaps_HeapMem_reqAlign__C                            
01014839  ti_sysbios_knl_Clock_Instance_finalize__E                       
01012f41  ti_sysbios_knl_Clock_Instance_init__E                           
0101606c  ti_sysbios_knl_Clock_Module_State_clockQ__O                     
2000af40  ti_sysbios_knl_Clock_Module__root__V                            
2000ad1c  ti_sysbios_knl_Clock_Module__state__V                           
010142a9  ti_sysbios_knl_Clock_Module_startup__E                          
01015c54  ti_sysbios_knl_Clock_Object__DESC__C                            
01015ae8  ti_sysbios_knl_Clock_Object__PARAMS__C                          
010142cd  ti_sysbios_knl_Clock_Object__delete__S                          
010151d5  ti_sysbios_knl_Clock_Params__init__S                            
01014ac9  ti_sysbios_knl_Clock_TimerProxy_Module__startupDone__S          
0101085d  ti_sysbios_knl_Clock_TimerProxy_getMaxTicks__E                  
010108bd  ti_sysbios_knl_Clock_TimerProxy_setPeriodMicroSecs__E           
0101091d  ti_sysbios_knl_Clock_TimerProxy_start__E                        
01014261  ti_sysbios_knl_Clock_TimerProxy_startup__E                      
0101097d  ti_sysbios_knl_Clock_TimerProxy_stop__E                         
01013f71  ti_sysbios_knl_Clock_addI__E                                    
010138c9  ti_sysbios_knl_Clock_construct                                  
01012f7d  ti_sysbios_knl_Clock_create                                     
01010f9d  ti_sysbios_knl_Clock_delete                                     
01014619  ti_sysbios_knl_Clock_destruct                                   
01013c59  ti_sysbios_knl_Clock_doTick__I                                  
01012fb9  ti_sysbios_knl_Clock_getTicksUntilTimeout__E                    
010151e1  ti_sysbios_knl_Clock_getTicks__E                                
01013c89  ti_sysbios_knl_Clock_getTimeout__E                              
010153c1  ti_sysbios_knl_Clock_logTick__E                                 
010151f1  ti_sysbios_knl_Clock_setTicks__E                                
010153a1  ti_sysbios_knl_Clock_setTimeout__E                              
010142f1  ti_sysbios_knl_Clock_start__E                                   
01015369  ti_sysbios_knl_Clock_stop__E                                    
01015f19  ti_sysbios_knl_Clock_tickMode__C                                
01016070  ti_sysbios_knl_Clock_tickPeriod__C                              
01014dc9  ti_sysbios_knl_Clock_tickReconfig__E                            
01015fc7  ti_sysbios_knl_Clock_tickSource__C                              
01015201  ti_sysbios_knl_Clock_tickStart__E                               
01015211  ti_sysbios_knl_Clock_tickStop__E                                
01012fb9  ti_sysbios_knl_Clock_walkQueuePeriodic__E                       
0100fb79  ti_sysbios_knl_Clock_workFunc__E                                
01015f90  ti_sysbios_knl_Idle_funcList__A                                 
01015f98  ti_sysbios_knl_Idle_funcList__C                                 
010150a1  ti_sysbios_knl_Idle_loop__E                                     
01014639  ti_sysbios_knl_Idle_run__E                                      
01016074  ti_sysbios_knl_Mailbox_Instance_State_dataQue__O                
01016078  ti_sysbios_knl_Mailbox_Instance_State_dataSem__O                
0101607c  ti_sysbios_knl_Mailbox_Instance_State_freeQue__O                
01016080  ti_sysbios_knl_Mailbox_Instance_State_freeSem__O                
0100f799  ti_sysbios_knl_Mailbox_Instance_finalize__E                     
0100ac41  ti_sysbios_knl_Mailbox_Instance_init__E                         
2000af48  ti_sysbios_knl_Mailbox_Module__root__V                          
01012279  ti_sysbios_knl_Mailbox_Module_startup__E                        
01015c74  ti_sysbios_knl_Mailbox_Object__DESC__C                          
010159a4  ti_sysbios_knl_Mailbox_Object__PARAMS__C                        
01016084  ti_sysbios_knl_Mailbox_Object__count__C                         
01014fb9  ti_sysbios_knl_Mailbox_Object__get__S                           
01010ef5  ti_sysbios_knl_Mailbox_create                                   
01016088  ti_sysbios_knl_Mailbox_maxTypeAlign__C                          
0100f479  ti_sysbios_knl_Mailbox_pend__E                                  
01012649  ti_sysbios_knl_Mailbox_postInit__I                              
0100e309  ti_sysbios_knl_Mailbox_post__E                                  
01015371  ti_sysbios_knl_Queue_Instance_init__E                           
2000af50  ti_sysbios_knl_Queue_Module__root__V                            
01015c94  ti_sysbios_knl_Queue_Object__DESC__C                            
01015d8c  ti_sysbios_knl_Queue_Object__PARAMS__C                          
0101521d  ti_sysbios_knl_Queue_Object__get__S                             
01013cb5  ti_sysbios_knl_Queue_construct                                  
01014855  ti_sysbios_knl_Queue_destruct                                   
010150b1  ti_sysbios_knl_Queue_empty__E                                   
01014871  ti_sysbios_knl_Queue_get__E                                     
01014891  ti_sysbios_knl_Queue_put__E                                     
0101608c  ti_sysbios_knl_Semaphore_Instance_State_pendQ__O                
01014fc9  ti_sysbios_knl_Semaphore_Instance_finalize__E                   
01014319  ti_sysbios_knl_Semaphore_Instance_init__E                       
2000af58  ti_sysbios_knl_Semaphore_Module__root__V                        
01015cb4  ti_sysbios_knl_Semaphore_Object__DESC__C                        
01015b0c  ti_sysbios_knl_Semaphore_Object__PARAMS__C                      
0101433d  ti_sysbios_knl_Semaphore_Object__delete__S                      
01015229  ti_sysbios_knl_Semaphore_Params__init__S                        
010138f9  ti_sysbios_knl_Semaphore_construct                              
01013555  ti_sysbios_knl_Semaphore_create                                 
010114b5  ti_sysbios_knl_Semaphore_delete                                 
01014659  ti_sysbios_knl_Semaphore_destruct                               
01013929  ti_sysbios_knl_Semaphore_pendTimeout__I                         
010088d1  ti_sysbios_knl_Semaphore_pend__E                                
0100f809  ti_sysbios_knl_Semaphore_post__E                                
2000a9e4  ti_sysbios_knl_Swi_Module_State_0_readyQ__A                     
2000adfc  ti_sysbios_knl_Swi_Module__state__V                             
01013f99  ti_sysbios_knl_Swi_Module_startup__E                            
01016090  ti_sysbios_knl_Swi_Object__count__C                             
01014ddd  ti_sysbios_knl_Swi_Object__get__S                               
2000acec  ti_sysbios_knl_Swi_Object__table__V                             
01014fd9  ti_sysbios_knl_Swi_disable__E                                   
01012691  ti_sysbios_knl_Swi_post__E                                      
0100fbe9  ti_sysbios_knl_Swi_restoreHwi__E                                
01012ff9  ti_sysbios_knl_Swi_restore__E                                   
01011b11  ti_sysbios_knl_Swi_runLoop__I                                   
01010801  ti_sysbios_knl_Swi_run__I                                       
01010861  ti_sysbios_knl_Swi_schedule__I                                  
01015379  ti_sysbios_knl_Swi_startup__E                                   
01016094  ti_sysbios_knl_Task_E_deleteNotAllowed__C                       
2000a000  ti_sysbios_knl_Task_Instance_State_0_stack__A                   
01009971  ti_sysbios_knl_Task_Instance_finalize__E                        
0100b9a1  ti_sysbios_knl_Task_Instance_init__E                            
2000afac  ti_sysbios_knl_Task_Module_State_0_idleTask__A                  
2000aa64  ti_sysbios_knl_Task_Module_State_0_readyQ__A                    
01016098  ti_sysbios_knl_Task_Module_State_inactiveQ__O                   
0101609c  ti_sysbios_knl_Task_Module_State_terminatedQ__O                 
0101610c  ti_sysbios_knl_Task_Module__id__C                               
2000af60  ti_sysbios_knl_Task_Module__root__V                             
2000aba0  ti_sysbios_knl_Task_Module__state__V                            
010108c1  ti_sysbios_knl_Task_Module_startup__E                           
01015cd4  ti_sysbios_knl_Task_Object__DESC__C                             
01015968  ti_sysbios_knl_Task_Object__PARAMS__C                           
010160a0  ti_sysbios_knl_Task_Object__count__C                            
01014679  ti_sysbios_knl_Task_Object__delete__S                           
01014df1  ti_sysbios_knl_Task_Object__first__S                            
01014fe9  ti_sysbios_knl_Task_Object__get__S                              
010160a4  ti_sysbios_knl_Task_Object__heap__C                             
01014e05  ti_sysbios_knl_Task_Object__next__S                             
2000ab54  ti_sysbios_knl_Task_Object__table__V                            
01015235  ti_sysbios_knl_Task_Params__init__S                             
0100fbe5  ti_sysbios_knl_Task_SupportProxy_Module__startupDone__S         
010151b9  ti_sysbios_knl_Task_SupportProxy_getStackAlignment__E           
010137a9  ti_sysbios_knl_Task_SupportProxy_start__E                       
01014f99  ti_sysbios_knl_Task_SupportProxy_swap__E                        
010160a8  ti_sysbios_knl_Task_allBlockedFunc__C                           
01011b61  ti_sysbios_knl_Task_allBlockedFunction__I                       
01011559  ti_sysbios_knl_Task_create                                      
010160ac  ti_sysbios_knl_Task_defaultStackHeap__C                         
010160b0  ti_sysbios_knl_Task_defaultStackSize__C                         
01011b0d  ti_sysbios_knl_Task_delete                                      
010122c1  ti_sysbios_knl_Task_deleteTerminatedTasksFunc__I                
01014ff9  ti_sysbios_knl_Task_disable__E                                  
010148b1  ti_sysbios_knl_Task_enter__I                                    
0100d929  ti_sysbios_knl_Task_exit__E                                     
010160b4  ti_sysbios_knl_Task_numConstructedTasks__C                      
0100d501  ti_sysbios_knl_Task_postInit__I                                 
010131c9  ti_sysbios_knl_Task_processVitalTaskFlag__I                     
01014361  ti_sysbios_knl_Task_restoreHwi__E                               
01013ce1  ti_sysbios_knl_Task_restore__E                                  
01011bb1  ti_sysbios_knl_Task_schedule__I                                 
0100cba9  ti_sysbios_knl_Task_setPri__E                                   
01014b41  ti_sysbios_knl_Task_sleepTimeout__I                             
0100b5d9  ti_sysbios_knl_Task_sleep__E                                    
01010921  ti_sysbios_knl_Task_startCore__E                                
010153a9  ti_sysbios_knl_Task_startup__E                                  
01014fa1  ti_sysbios_knl_Task_swapReturn                                  
01013959  ti_sysbios_knl_Task_unblockI__E                                 
01009539  timer_create                                                    
01013989  timer_delete                                                    
01010f49  timer_gettime                                                   
0100b389  timer_settime                                                   
2000ae74  topic                                                           
01015241  uDMAErrorStatusClear                                            
0101524d  uDMAErrorStatusGet                                              
01015928  uartCC3220SHWAttrs                                              
2000a45c  uartCC3220SObjects                                              
2000a688  uartCC3220SRingBuffer                                           
01015f40  udmaCC3220SHWAttrs                                              
2000a750  udmaCC3220SObject                                               
01014929  usleep                                                          
0100e1f9  vsnprintf                                                       
2000aed0  will_param                                                      
01010fa1  xdc_runtime_Core_assignLabel__I                                 
01012399  xdc_runtime_Core_assignParams__I                                
0100eb61  xdc_runtime_Core_constructObject__I                             
0100bbd9  xdc_runtime_Core_createObject__I                                
0100f4f1  xdc_runtime_Core_deleteObject__I                                
010160b8  xdc_runtime_Error_E_memory__C                                   
2000addc  xdc_runtime_Error_IgnoreBlock                                   
01014b59  xdc_runtime_Error_init__E                                       
010160bc  xdc_runtime_Error_policyFxn__C                                  
01014389  xdc_runtime_Error_policyMin__E                                  
01016114  xdc_runtime_Error_policy__C                                     
010160c0  xdc_runtime_IGateProvider_Interface__BASE__C                    
010160c4  xdc_runtime_IHeap_Interface__BASE__C                            
010160c8  xdc_runtime_IModule_Interface__BASE__C                          
01014ae1  xdc_runtime_Main_Module_GateProxy_Handle__label__S              
01015391  xdc_runtime_Main_Module_GateProxy_query__E                      
01014b29  xdc_runtime_Memory_HeapProxy_Handle__label__S                   
010152e5  xdc_runtime_Memory_HeapProxy_alloc__E                           
010152ef  xdc_runtime_Memory_HeapProxy_free__E                            
0101610e  xdc_runtime_Memory_Module__id__C                                
2000afb0  xdc_runtime_Memory_Module__state__V                             
0100e391  xdc_runtime_Memory_alloc__E                                     
010160cc  xdc_runtime_Memory_defaultHeapInstance__C                       
01015009  xdc_runtime_Memory_free__E                                      
2000af68  xdc_runtime_Startup_Module__state__V                            
00000001  xdc_runtime_Startup__EXECFXN__C                                 
00000001  xdc_runtime_Startup__RESETFXN__C                                
010160d0  xdc_runtime_Startup_execImpl__C                                 
01010981  xdc_runtime_Startup_exec__E                                     
01014e73  xdc_runtime_Startup_exec__I                                     
01015f4c  xdc_runtime_Startup_firstFxns__A                                
01015fa0  xdc_runtime_Startup_firstFxns__C                                
01015fa8  xdc_runtime_Startup_lastFxns__C                                 
010160d4  xdc_runtime_Startup_maxPasses__C                                
01006117  xdc_runtime_Startup_reset__I                                    
01015259  xdc_runtime_Startup_rtsDone__E                                  
01015efc  xdc_runtime_Startup_sfxnRts__A                                  
010160d8  xdc_runtime_Startup_sfxnRts__C                                  
01015cf4  xdc_runtime_Startup_sfxnTab__A                                  
010160dc  xdc_runtime_Startup_sfxnTab__C                                  
010090e1  xdc_runtime_Startup_startMods__I                                
010160e0  xdc_runtime_SysCallback_abortFxn__C                             
01015019  xdc_runtime_SysCallback_abort__E                                
010153c9  xdc_runtime_SysCallback_defaultAbort                            
010153d1  xdc_runtime_SysCallback_defaultExit                             
010160e4  xdc_runtime_SysCallback_exitFxn__C                              
01015029  xdc_runtime_SysCallback_exit__E                                 
01014ae1  xdc_runtime_System_Module_GateProxy_Handle__label__S            
01011b5d  xdc_runtime_System_Module_GateProxy_enter__E                    
01011bad  xdc_runtime_System_Module_GateProxy_leave__E                    
01015391  xdc_runtime_System_Module_GateProxy_query__E                    
2000af70  xdc_runtime_System_Module_State_0_atexitHandlers__A             
010160e8  xdc_runtime_System_Module__gateObj__C                           
2000af78  xdc_runtime_System_Module__state__V                             
01015381  xdc_runtime_System_Module_startup__E                            
01015019  xdc_runtime_System_SupportProxy_abort__E                        
01015029  xdc_runtime_System_SupportProxy_exit__E                         
010160ec  xdc_runtime_System_abortFxn__C                                  
010153d9  xdc_runtime_System_abortSpin__E                                 
010126d9  xdc_runtime_System_atexit__E                                    
010160f0  xdc_runtime_System_exitFxn__C                                   
010153e1  xdc_runtime_System_exitSpin__E                                  
01014b71  xdc_runtime_System_exit__E                                      
010160f4  xdc_runtime_System_maxAtexitHandlers__C                         
01013039  xdc_runtime_System_processAtExit__E                             
01016110  xdc_runtime_Text_charCnt__C                                     
01016115  xdc_runtime_Text_charTab__A                                     
010160f8  xdc_runtime_Text_charTab__C                                     
01016112  xdc_runtime_Text_isLoaded__C                                    
010160fc  xdc_runtime_Text_nameEmpty__C                                   
01016100  xdc_runtime_Text_nameStatic__C                                  
01016104  xdc_runtime_Text_nameUnknown__C                                 


GLOBAL SYMBOLS: SORTED BY Symbol Address 

address   name                                                            
-------   ----                                                            
00000000  __ASM__                                                         
00000001  xdc_runtime_Startup__EXECFXN__C                                 
00000001  xdc_runtime_Startup__RESETFXN__C                                
0000007e  __ISA__                                                         
00000091  __PLAT__                                                        
000000b8  __TARG__                                                        
000000dd  __TRDR__                                                        
00000400  __STACK_SIZE                                                    
00008000  HEAPSIZE                                                        
01000800  ti_sysbios_family_arm_m3_Hwi_resetVectors                       
01001079  __TI_printfi                                                    
01001963  UARTCC32XX_init                                                 
010021d1  PRCMCC3200MCUInit                                               
010025fd  _SlSocketHandleAsync_Select                                     
01002d89  MqttClientCallback                                              
010030c5  Network_IF_ConnectAP                                            
010036c1  mainThread                                                      
01003969  UARTCC32XX_open                                                 
01003c0d  sl_WlanConnect                                                  
01003e81  MqttClient_start                                                
010040e9  Network_IF_InitDriver                                           
0100434d  sl_Select                                                       
010045a1  MqttClientCtxCreate                                             
010047ed  DisplayAppBanner                                                
01004a25  MqttClient                                                      
01004c49  _SlDrvDriverCBInit                                              
01004e51  _SlDrvDataReadOp                                                
0100504d  __aeabi_uldivmod                                                
01005241  _SlNetAppEventHandler                                           
01005433  ti_sysbios_BIOS_nullFunc__I                                     
01005435  MQTTClient_connect                                              
01005619  SimpleLinkFatalErrorEventHandler                                
010059d5  SimpleLinkWlanEventHandler                                      
01005bad  _SlDrvReleasePoolObj                                            
01005d85  GPIO_setConfig                                                  
01005f51  SPICC32XXDMA_transfer                                           
01006117  xdc_runtime_Startup_reset__I                                    
010062d5  sl_Accept                                                       
01006491  __aeabi_dsub                                                    
0100649b  __aeabi_dadd                                                    
01006649  PowerCC32XX_sleepPolicy                                         
010067fd  _SlDrvWaitForPoolObj                                            
01006999  sl_Connect                                                      
01006b25  ClockP_getCpuFreq                                               
01006b29  mq_open                                                         
01006cb1  MQTT_PacketRecv                                                 
01006e31  SimpleLinkNetAppEventHandler                                    
01006fb1  _SlDrvDataWriteOp                                               
010072b1  _SlInternalSpawnTaskEntry                                       
010075a1  sl_Stop                                                         
0100770d  SPICC32XXDMA_open                                               
01007865  sl_RecvFrom                                                     
01007b0d  MqttClientConfig                                                
01007c5d  _SlDrvDriverCBDeinit                                            
01007efd  Mqtt_IF_Connect                                                 
01008041  Mqtt_start                                                      
01008531  __aeabi_ddiv                                                    
01008669  sl_NetAppDnsGetHostByName                                       
010088cd  ClockP_setTimeout                                               
010088d1  ti_sysbios_knl_Semaphore_pend__E                                
01008a01  MQTTClientCore_initLib                                          
01008e9d  sl_Start                                                        
01008fc1  UARTCC32XX_close                                                
010090e1  xdc_runtime_Startup_startMods__I                                
010091fd  Power_sleep                                                     
01009315  _SlNetAppHandleAsync_DnsGetHostByService                        
01009429  commOpen                                                        
01009539  timer_create                                                    
01009649  MQTTClient_create                                               
01009755  _SlDrvMsgReadSpawnCtx                                           
01009861  sl_Close                                                        
0100996d  ClockP_start                                                    
01009971  ti_sysbios_knl_Task_Instance_finalize__E                        
01009a7d  _SlDeviceEventHandler                                           
01009b81  _SlDrvCmdOp                                                     
01009e8d  SimpleLinkSockEventHandler                                      
01009f8d  MqttClientSub                                                   
0100a089  __aeabi_dmul                                                    
0100a185  sl_SendTo                                                       
0100a279  SPICC32XXDMA_transferCancel                                     
0100a36b  UARTCC32XX_control                                              
0100a631  pthread_create                                                  
0100a71d  tcpSelect                                                       
0100a805  MqttClient_send                                                 
0100a9bd  GetCmd                                                          
0100aa95  _SlNetAppHandleAsync_NetAppReceive                              
0100ac41  ti_sysbios_knl_Mailbox_Instance_init__E                         
0100ad15  Mqtt_Stop                                                       
0100ade5  SPICC32XXDMA_close                                              
0100aeb5  ldexp                                                           
0100aeb5  ldexpl                                                          
0100aeb5  scalbn                                                          
0100aeb5  scalbnl                                                         
0100af85  ClockP_stop                                                     
0100af89  ti_sysbios_heaps_HeapMem_alloc__E                               
0100b129  ti_sysbios_family_arm_m3_Hwi_dispatch__I                        
0100b1d9  ti_sysbios_family_arm_m3_Hwi_interruptsAreDisabledButShouldNotBe
0100b1f5  MQTTClientCore_createCtx                                        
0100b2bd  HwiP_clearInterrupt                                             
0100b2c1  clock_gettime                                                   
0100b389  timer_settime                                                   
0100b451  GPIO_init                                                       
0100b5d9  ti_sysbios_knl_Task_sleep__E                                    
0100b69d  NwpPowerOff                                                     
0100b75d  UARTCC32XX_write                                                
0100b81d  _SlInternalSpawn                                                
0100b8dd  sl_NetCfgGet                                                    
0100b99d  HwiP_disable                                                    
0100b9a1  ti_sysbios_knl_Task_Instance_init__E                            
0100ba61  _SlNetAppSendResponse                                           
0100bb1d  sl_Send                                                         
0100bbd9  xdc_runtime_Core_createObject__I                                
0100bd4d  sl_DeviceGet                                                    
0100be05  SetClientIdNamefromMacAddress                                   
0100beb9  UARTCC32XX_readPolling                                          
0100c189  MQTT_packetPubAppendTopic                                       
0100c23d  MQTTClient_delete                                               
0100c2ed  MqttClientUnsub                                                 
0100c39d  _SlDeviceHandleAsync_InitComplete                               
0100c44d  _SlDrvHandleFatalError                                          
0100c70d  Report                                                          
0100c90d  Network_IF_IpConfigGet                                          
0100c9b5  PowerCC32XX_configureWakeup                                     
0100cb01  sl_Bind                                                         
0100cba5  HwiP_disableInterrupt                                           
0100cba9  ti_sysbios_knl_Task_setPri__E                                   
0100cc4d  MQTT_packetProcPubRx                                            
0100cd91  Mqtt_ClientStop                                                 
0100ce31  __TI_auto_init                                                  
0100d0b1  spi_Read                                                        
0100d14f  spi_Write                                                       
0100d1ed  HwiP_enableInterrupt                                            
0100d1f1  _pthread_removeThreadKeys                                       
0100d3c5  recvFrom                                                        
0100d461  __aeabi_memcpy                                                  
0100d461  __aeabi_memcpy4                                                 
0100d461  __aeabi_memcpy8                                                 
0100d461  memcpy                                                          
0100d4fd  List_head                                                       
0100d501  ti_sysbios_knl_Task_postInit__I                                 
0100d59d  TrimSpace                                                       
0100d635  _SlNetUtilHandleAsync_Cmd                                       
0100d765  List_next                                                       
0100d769  ti_sysbios_family_arm_m3_Hwi_Instance_init__E                   
0100d929  ti_sysbios_knl_Task_exit__E                                     
0100d9bd  _SlNetAppHandleAsync_DnsGetHostByName                           
0100da4d  _SlNetAppHandleAsync_PingResponse                               
0100db6d  MQTTClientCore_sendPubMsg                                       
0100dc8d  MQTTClientCore_exitLib                                          
0100dd19  _SlDrvDriverIsApiAllowed                                        
0100debd  sl_Recv                                                         
0100df49  MQTT_packetPubAppendData                                        
0100dfd3  tcpListen                                                       
0100e05d  MQTTClientCore_registerBuffers                                  
0100e0e5  MQTTClient_run                                                  
0100e16d  MutexP_lock                                                     
0100e171  pthread_cancel                                                  
0100e1f9  vsnprintf                                                       
0100e281  ti_sysbios_family_arm_m3_Hwi_initNVIC__E                        
0100e309  ti_sysbios_knl_Mailbox_post__E                                  
0100e391  xdc_runtime_Memory_alloc__E                                     
0100e419  _SlDrvIsTimeoutExpired                                          
0100e49f  __aeabi_cdcmpeq                                                 
0100e49f  __aeabi_cdcmple                                                 
0100e525  __aeabi_cdrcmple                                                
0100e5ab  MQTTClientCore_registerWillInfo                                 
0100e631  MQTTClient_set                                                  
0100e6b5  MqttClientThread                                                
0100e739  _SlSocketHandleAsync_Close                                      
0100e7bd  _SlSocketHandleAsync_Connect                                    
0100e841  _pthread_runStub                                                
0100e9cd  sl_SetSockOpt                                                   
0100ea51  ti_sysbios_family_arm_m3_Hwi_postInit__I                        
0100ead5  MutexP_unlock                                                   
0100ead9  ti_sysbios_heaps_HeapMem_free__E                                
0100eb5d  SPICC32XXDMA_init                                               
0100eb61  xdc_runtime_Core_constructObject__I                             
0100ec67  sendTo                                                          
0100ed65  UDMACC32XX_open                                                 
0100ee5d  SemaphoreP_post                                                 
0100ee5d  ff_rel_grant                                                    
0100ee61  _pthread_abstime2ticks                                          
0100efd3  __aeabi_memclr                                                  
0100efd3  __aeabi_memclr4                                                 
0100efd3  __aeabi_memclr8                                                 
0100efd5  __aeabi_memset                                                  
0100efd5  __aeabi_memset4                                                 
0100efd5  __aeabi_memset8                                                 
0100efdb  memset                                                          
0100f04d  GPIO_hwiIntFxn                                                  
0100f0c5  Power_init                                                      
0100f13d  pushButtonInterruptHandler3                                     
0100f1b5  sl_Socket                                                       
0100f22d  MQTT_packetPrepFh                                               
0100f319  MQTT_qos2PubCqCheck                                             
0100f401  tcpAccept                                                       
0100f475  ti_sysbios_BIOS_RtsGateProxy_enter__E                           
0100f479  ti_sysbios_knl_Mailbox_pend__E                                  
0100f4ed  ti_sysbios_BIOS_RtsGateProxy_leave__E                           
0100f4f1  xdc_runtime_Core_deleteObject__I                                
0100f5d7  MQTT_clCtxTimeoutInsert                                         
0100f647  MQTT_packetAckWlistRemove                                       
0100f729  ti_sysbios_heaps_HeapMem_initPrimary__I                         
0100f799  ti_sysbios_knl_Mailbox_Instance_finalize__E                     
0100f809  ti_sysbios_knl_Semaphore_post__E                                
0100f8e9  MQTTClientCore_registerCtxInfo                                  
0100f959  _SlDeviceHandleResetRequestInternally                           
0100f9c5  _SlDrvCmdSend_noLock                                            
0100fa9d  _SlNetAppSendTokenValue                                         
0100fb09  pthread_exit                                                    
0100fb75  ti_sysbios_family_arm_m3_Hwi_delete                             
0100fb79  ti_sysbios_knl_Clock_workFunc__E                                
0100fbe5  ti_sysbios_family_arm_m3_TaskSupport_Module__startupDone__S     
0100fbe5  ti_sysbios_knl_Task_SupportProxy_Module__startupDone__S         
0100fbe9  ti_sysbios_knl_Swi_restoreHwi__E                                
0100fc55  MQTTClientCore_deleteCtx                                        
0100fcbd  MQTTClientCore_sendDisconn                                      
0100fd25  PowerCC32XX_setParkState                                        
0100fd8d  _SlDeviceHandleAsync_Stop                                       
0100fdf5  _SlSocketHandleAsync_Accept                                     
0100fe5d  __TI_decompress_lzss                                            
0100ff2d  main                                                            
0100fffd  UARTCC32XX_writeCancel                                          
010100c9  GPIO_toggle                                                     
01010259  pthread_mutex_init                                              
010102bd  ti_sysbios_gates_GateMutex_delete                               
010102c1  ti_sysbios_family_arm_m3_Hwi_dispatchC__I                       
01010325  MQTTClientCore_alloc                                            
01010387  MQTT_packetBufTailWrRemlen                                      
010103e9  UARTCC32XX_writePolling                                         
0101044b  MQTT_packetBufRdRemlen                                          
010104ad  PRCMSysResetCauseGet                                            
0101056d  tcpRecv                                                         
0101062d  MQTTClientCore_run                                              
01010689  Power_setDependency                                             
01010741  frexp                                                           
01010741  frexpl                                                          
0101079d  ti_sysbios_heaps_HeapMem_Module_GateProxy_enter__E              
010107a1  ti_sysbios_family_arm_m3_Timer_start__E                         
010107fd  ti_sysbios_heaps_HeapMem_Module_GateProxy_leave__E              
01010801  ti_sysbios_knl_Swi_run__I                                       
0101085d  ti_sysbios_knl_Clock_TimerProxy_getMaxTicks__E                  
01010861  ti_sysbios_knl_Swi_schedule__I                                  
010108bd  ti_sysbios_knl_Clock_TimerProxy_setPeriodMicroSecs__E           
010108c1  ti_sysbios_knl_Task_Module_startup__E                           
0101091d  ti_sysbios_knl_Clock_TimerProxy_start__E                        
01010921  ti_sysbios_knl_Task_startCore__E                                
0101097d  ti_sysbios_knl_Clock_TimerProxy_stop__E                         
01010981  xdc_runtime_Startup_exec__E                                     
01010a39  GPIO_setCallback                                                
01010a91  GPIO_write                                                      
01010ae9  PRCMPeripheralReset                                             
01010b41  Power_releaseDependency                                         
01010c49  sl_Listen                                                       
01010ca1  ti_sysbios_family_arm_cc32xx_Seconds_getCount__I                
01010cf9  MQTT_clCtxRemove                                                
01010d51  InitTerm                                                        
01010da5  MQTTClientCore_registerNetSvc                                   
01010df9  ltoa                                                            
01010e4d  ti_sysbios_family_arm_m3_Hwi_create                             
01010ea1  ti_sysbios_family_arm_m3_Timer_setPeriod__E                     
01010ef5  ti_sysbios_knl_Mailbox_create                                   
01010f49  timer_gettime                                                   
01010f9d  ti_sysbios_knl_Clock_delete                                     
01010fa1  xdc_runtime_Core_assignLabel__I                                 
01011049  MQTT_qos2PubCqUnlog                                             
0101109b  PowerCC32XX_parkPin                                             
010110ed  PowerCC32XX_resumeLPDS                                          
010111e5  MQTTClient_disconnect                                           
01011235  NwpRegisterInterruptHandler                                     
010112d5  _SlDrvRxIrqHandler                                              
01011325  _SlNetAppHttpServerHdlr                                         
01011375  _SlNetAppRequestHdlr                                            
01011465  spi_Open                                                        
010114b5  ti_sysbios_knl_Semaphore_delete                                 
010114b9  ti_sysbios_family_arm_cc32xx_Seconds_getTime__E                 
010114b9  ti_sysbios_hal_Seconds_SecondsProxy_getTime__E                  
01011509  ti_sysbios_family_arm_m3_Hwi_Module_startup__E                  
01011559  ti_sysbios_knl_Task_create                                      
01011699  GPIO_disableInt                                                 
010116e5  GPIO_enableInt                                                  
01011731  MQTT_qos2PubCqLogup                                             
0101177d  MqttClientCtxDelete                                             
010117c9  NwpWaitForShutDownInd                                           
01011815  _SlDrvCmdSend_noWait                                            
01011861  _SlDrvProtectAsyncRespSetting                                   
010118ad  _sl_ExtLib_ServerAckLockedWait                                  
01011945  atoi                                                            
01011991  copy_in                                                         
01011a29  sl_WlanSetMode                                                  
01011a75  ti_sysbios_family_arm_m3_TaskSupport_buildTaskStack             
01011ac1  ti_sysbios_heaps_HeapMem_getStats__E                            
01011b0d  ti_sysbios_knl_Task_delete                                      
01011b11  ti_sysbios_knl_Swi_runLoop__I                                   
01011b5d  xdc_runtime_System_Module_GateProxy_enter__E                    
01011b61  ti_sysbios_knl_Task_allBlockedFunction__I                       
01011bad  xdc_runtime_System_Module_GateProxy_leave__E                    
01011bb1  ti_sysbios_knl_Task_schedule__I                                 
01011c49  ClockP_create                                                   
01011c91  FlashDisable                                                    
01011cd9  LedTimerConfigNStart                                            
01011d21  MQTT_SendMsgToQueue                                             
01011d69  PRCMLPDSEnter                                                   
01011db1  PRCMPeripheralClkEnable                                         
01011df9  Power_releaseConstraint                                         
01011e41  _SlDeviceFatalErrorEvtHdlr                                      
01011e89  _SlDeviceGeneralEvtHdlr                                         
01011ed1  _SlDrvBasicCmd                                                  
01011f19  _SlDrvSyncObjWaitTimeout                                        
01011f61  _SlNetAppEvtHdlr                                                
01011fa9  _SlNetAppRequestMemFree                                         
01011ff1  _SlSockEvtHdlr                                                  
01012039  _SlWlanEvtHdlr                                                  
01012111  __aeabi_d2iz                                                    
01012159  ti_sysbios_family_arm_m3_Hwi_disableInterrupt__E                
01012159  ti_sysbios_hal_Hwi_HwiProxy_disableInterrupt__E                 
010121a1  ti_sysbios_family_arm_m3_Hwi_enableInterrupt__E                 
010121a1  ti_sysbios_hal_Hwi_HwiProxy_enableInterrupt__E                  
010121e9  ti_sysbios_family_arm_m3_Hwi_initStacks__E                      
01012231  ti_sysbios_family_arm_m3_Timer_initDevice__I                    
01012279  ti_sysbios_knl_Mailbox_Module_startup__E                        
010122c1  ti_sysbios_knl_Task_deleteTerminatedTasksFunc__I                
01012309  RingBuf_put                                                     
01012399  xdc_runtime_Core_assignParams__I                                
010123e1  PRCMLPDSRestoreInfoSet                                          
01012425  PowerCC32XX_enterLPDS                                           
01012469  SPI_init                                                        
010124ad  UART_init                                                       
010124f1  _c_int00                                                        
01012601  ti_sysbios_family_arm_m3_Hwi_getStackInfo__E                    
01012601  ti_sysbios_hal_Hwi_HwiProxy_getStackInfo__E                     
01012649  ti_sysbios_knl_Mailbox_postInit__I                              
01012691  ti_sysbios_knl_Swi_post__E                                      
010126d9  xdc_runtime_System_atexit__E                                    
0101275f  sl_Htonl                                                        
01012825  HwiP_create                                                     
01012865  InitializeAppVariables                                          
010128a5  MQTT_clCtxTimeoutUpdate                                         
010128e5  PinModeSet                                                      
01012925  RingBuf_get                                                     
01012965  SimpleLinkGeneralEventHandler                                   
010129a5  UARTCC32XX_read                                                 
010129e5  UDMACC32XX_init                                                 
01012a25  _SlDrvGlobalObjUnLock                                           
01012a65  _SlIsEventRegistered                                            
01012ae9  pthread_mutex_unlock                                            
01012b29  pushButtonInterruptHandler2                                     
01012b69  strtok                                                          
01012ba9  ti_sysbios_heaps_HeapMem_Instance_init__E                       
01012c27  realloc                                                         
01012ca5  Network_IF_DisconnectFromAP                                     
01012ce1  Power_setConstraint                                             
01012d1d  SPI_open                                                        
01012d59  SemaphoreP_create                                               
01012d95  UART_open                                                       
01012e85  sl_Htons                                                        
01012ec1  ti_sysbios_family_arm_m3_Hwi_Instance_finalize__E               
01012f01  ti_sysbios_family_arm_m3_Timer_setPeriodMicroSecs__E            
01012f41  ti_sysbios_knl_Clock_Instance_init__E                           
01012f7d  ti_sysbios_knl_Clock_create                                     
01012fb9  ti_sysbios_knl_Clock_getTicksUntilTimeout__E                    
01012fb9  ti_sysbios_knl_Clock_walkQueuePeriodic__E                       
01012ff9  ti_sysbios_knl_Swi_restore__E                                   
01013039  xdc_runtime_System_processAtExit__E                             
010130e5  PRCMLPDSEnterKeepDebugIf                                        
01013121  mq_close                                                        
01013191  pthread_setschedparam                                           
010131c9  ti_sysbios_knl_Task_processVitalTaskFlag__I                     
01013237  MQTT_packetAckWlistAppend                                       
0101326d  MQTT_packetBufWrUtf8                                            
010132a3  MQTT_packetProcMsgIdAckRx                                       
010132d9  PowerCC32XX_restoreParkedPin                                    
0101330f  UARTCC32XX_readCancel                                           
01013349  mq_timedsend                                                    
0101337f  strncpy                                                         
010133b5  MQTT_packetReset                                                
010133e9  PinModeGet                                                      
0101341d  PowerCC32XX_restoreParkState                                    
01013485  UDMACC32XX_close                                                
01013521  ti_sysbios_family_arm_m3_Timer_periodicStub__I                  
01013555  ti_sysbios_knl_Semaphore_create                                 
01013589  MQTT_packetAckWlistPurge                                        
01013621  ti_sysbios_hal_Hwi_initStack                                    
01013653  MQTT_clCtxReset                                                 
01013685  _SlDrvSyncObjWaitForever                                        
01013719  printBorder                                                     
01013749  ti_sysbios_BIOS_atExitFunc__I                                   
01013779  ti_sysbios_BIOS_startFunc__I                                    
010137a9  ti_sysbios_family_arm_m3_TaskSupport_start__E                   
010137a9  ti_sysbios_knl_Task_SupportProxy_start__E                       
010137d9  ti_sysbios_gates_GateHwi_Object__create__S                      
01013809  ti_sysbios_gates_GateMutex_Object__create__S                    
01013839  ti_sysbios_gates_GateMutex_create                               
01013869  ti_sysbios_gates_GateMutex_enter__E                             
01013899  ti_sysbios_heaps_HeapMem_Object__create__S                      
010138c9  ti_sysbios_knl_Clock_construct                                  
010138f9  ti_sysbios_knl_Semaphore_construct                              
01013929  ti_sysbios_knl_Semaphore_pendTimeout__I                         
01013959  ti_sysbios_knl_Task_unblockI__E                                 
01013989  timer_delete                                                    
010139e9  MQTTClient_publish                                              
01013a17  _sl_ExtLib_AwaitedAckSet                                        
01013a45  __aeabi_i2d                                                     
01013a73  ff_memalloc                                                     
01013a73  malloc                                                          
01013aa1  GPIO_clearInt                                                   
01013acd  NwpPowerOn                                                      
01013af9  PowerCC32XX_getParkState                                        
01013b25  SemaphoreP_createBinary                                         
01013b51  Semaphore_create_handle                                         
01013b7d  TimerPeriodicIntHandler                                         
01013ba9  _sl_ExtLib_AwaitedAckLockedSet                                  
01013c2d  strncmp                                                         
01013c59  ti_sysbios_knl_Clock_doTick__I                                  
01013c89  ti_sysbios_knl_Clock_getTimeout__E                              
01013cb5  ti_sysbios_knl_Queue_construct                                  
01013ce1  ti_sysbios_knl_Task_restore__E                                  
01013d63  strspn                                                          
01013ddd  MQTT_qos2PubCqReset                                             
01013e05  PRCMPeripheralClkDisable                                        
01013e2d  PowerCC32XX_initPolicy                                          
01013e55  Power_registerNotify                                            
01013e7d  SL_SOCKET_FD_ISSET                                              
01013ea5  _SlDrvProtectionObjLockWaitForever                              
01013ecd  _SlDrvProtectionObjUnLock                                       
01013f1d  _SlFlowContSet                                                  
01013f49  mq_receive                                                      
01013f71  ti_sysbios_knl_Clock_addI__E                                    
01013f99  ti_sysbios_knl_Swi_Module_startup__E                            
01013fc1  List_put                                                        
01013fe7  MQTTClientCore_ctxRun                                           
0101400d  MQTTClientCore_sendConnectMsg                                   
01014059  tcpSend                                                         
0101407f  MQTT_packetInit                                                 
010140a3  Mutex_create_handle                                             
010140c9  _SlDrvIsApiInProgress                                           
010140ed  _SlDrvStartMeasureTimeout                                       
01014111  pthread_attr_init                                               
01014139  pthread_mutex_destroy                                           
0101415d  memmove                                                         
01014181  strcspn                                                         
010141a5  sl_WlanDisconnect                                               
010141c9  ti_sysbios_BIOS_registerRTSLock__I                              
010141ed  ti_sysbios_BIOS_removeRTSLock__I                                
01014211  ti_sysbios_family_arm_m3_Timer_Module_startup__E                
01014239  ti_sysbios_family_arm_m3_Timer_postInit__I                      
01014261  ti_sysbios_family_arm_m3_Timer_startup__E                       
01014261  ti_sysbios_knl_Clock_TimerProxy_startup__E                      
01014285  ti_sysbios_gates_GateMutex_Object__delete__S                    
010142a9  ti_sysbios_knl_Clock_Module_startup__E                          
010142cd  ti_sysbios_knl_Clock_Object__delete__S                          
010142f1  ti_sysbios_knl_Clock_start__E                                   
01014319  ti_sysbios_knl_Semaphore_Instance_init__E                       
0101433d  ti_sysbios_knl_Semaphore_Object__delete__S                      
01014361  ti_sysbios_knl_Task_restoreHwi__E                               
01014389  xdc_runtime_Error_policyMin__E                                  
010143ad  MQTT_packetFree                                                 
010143cf  SL_SOCKET_FD_SET                                                
01014413  MQTT_secureConnStructInit                                       
01014435  Power_unregisterNotify                                          
01014455  RingBuf_peek                                                    
01014475  _SlDrvObjLockWaitForever                                        
01014495  _SlDrvObjUnLock                                                 
01014519  sleep                                                           
01014539  ti_sysbios_BIOS_rtsLock__I                                      
01014559  ti_sysbios_family_arm_m3_Hwi_Object__delete__S                  
01014579  ti_sysbios_family_arm_m3_Hwi_clearInterrupt__E                  
01014579  ti_sysbios_hal_Hwi_HwiProxy_clearInterrupt__E                   
01014599  ti_sysbios_family_arm_m3_Hwi_excHandlerAsm__I                   
010145b9  ti_sysbios_family_arm_m3_Hwi_excHandler__I                      
010145d9  ti_sysbios_gates_GateHwi_Object__delete__S                      
010145f9  ti_sysbios_heaps_HeapMem_Object__delete__S                      
01014619  ti_sysbios_knl_Clock_destruct                                   
01014639  ti_sysbios_knl_Idle_run__E                                      
01014659  ti_sysbios_knl_Semaphore_destruct                               
01014679  ti_sysbios_knl_Task_Object__delete__S                           
010146b7  _SlDrvSyncObjSignal                                             
01014711  ti_sysbios_family_xxx_Hwi_switchAndRunFunc                      
01014731  Message                                                         
0101474d  PinToPadGet                                                     
010147d9  memccpy                                                         
010147f9  ti_sysbios_family_arm_m3_Timer_stop__E                          
01014819  ti_sysbios_gates_GateMutex_Instance_init__E                     
01014839  ti_sysbios_knl_Clock_Instance_finalize__E                       
01014855  ti_sysbios_knl_Queue_destruct                                   
01014871  ti_sysbios_knl_Queue_get__E                                     
01014891  ti_sysbios_knl_Queue_put__E                                     
010148b1  ti_sysbios_knl_Task_enter__I                                    
01014929  usleep                                                          
01014945  commClose                                                       
0101495f  ti_sysbios_family_arm_m3_Hwi_pendSV__I                          
01014977  ti_sysbios_family_arm_m3_Hwi_return                             
01014979  MQTTClient_subscribe                                            
01014991  MQTTClient_unsubscribe                                          
010149a9  Power_idleFunc                                                  
010149c1  UARTBusy                                                        
010149d9  UARTIntEnable                                                   
010149f1  UART_Params_init                                                
01014a09  ff_memfree                                                      
01014a09  free                                                            
01014a21  pthread_attr_setschedparam                                      
01014a39  putch                                                           
01014a51  _args_main                                                      
01014a69  __aeabi_lmul                                                    
01014a81  strcmp                                                          
01014a99  ti_sysbios_BIOS_rtsUnlock__I                                    
01014ab1  ti_sysbios_family_arm_m3_Hwi_Module__startupDone__F             
01014ab1  ti_sysbios_family_arm_m3_Hwi_Module__startupDone__S             
01014ab1  ti_sysbios_hal_Hwi_HwiProxy_Module__startupDone__S              
01014ac9  ti_sysbios_family_arm_m3_Timer_Module__startupDone__F           
01014ac9  ti_sysbios_family_arm_m3_Timer_Module__startupDone__S           
01014ac9  ti_sysbios_knl_Clock_TimerProxy_Module__startupDone__S          
01014ae1  ti_sysbios_gates_GateHwi_Handle__label__S                       
01014ae1  xdc_runtime_Main_Module_GateProxy_Handle__label__S              
01014ae1  xdc_runtime_System_Module_GateProxy_Handle__label__S            
01014af9  ti_sysbios_BIOS_RtsGateProxy_Handle__label__S                   
01014af9  ti_sysbios_gates_GateMutex_Handle__label__S                     
01014af9  ti_sysbios_heaps_HeapMem_Module_GateProxy_Handle__label__S      
01014b11  ti_sysbios_gates_GateMutex_leave__E                             
01014b29  ti_sysbios_heaps_HeapMem_Handle__label__S                       
01014b29  xdc_runtime_Memory_HeapProxy_Handle__label__S                   
01014b41  ti_sysbios_knl_Task_sleepTimeout__I                             
01014b59  xdc_runtime_Error_init__E                                       
01014b71  xdc_runtime_System_exit__E                                      
01014b89  List_remove                                                     
01014b9f  MQTTClientCore_sendSubMsg                                       
01014bb5  MQTTClientCore_sendUnsubMsg                                     
01014bcb  PRCMHIBRegRead                                                  
01014be1  PRCMHIBRegWrite                                                 
01014bf7  _SlDrvMemZero                                                   
01014c65  rtcSecs                                                         
01014c7b  strchr                                                          
01014c91  ti_sysbios_BIOS_exitFunc__I                                     
01014ce9  Power_getDependencyCount                                        
01014cfd  SPI_Params_init                                                 
01014d25  _register_unlock                                                
01014d2b  _register_lock                                                  
01014d33  _nop                                                            
01014d39  strcpy                                                          
01014d4d  strlen                                                          
01014d61  sem_init                                                        
01014d79  sem_trywait                                                     
01014d8d  ti_sysbios_family_arm_m3_Hwi_Object__get__S                     
01014da1  ti_sysbios_family_arm_m3_Hwi_switchFromBootStack__E             
01014da1  ti_sysbios_hal_Hwi_HwiProxy_switchFromBootStack__E              
01014db5  ti_sysbios_heaps_HeapMem_Object__get__S                         
01014dc9  ti_sysbios_knl_Clock_tickReconfig__E                            
01014ddd  ti_sysbios_knl_Swi_Object__get__S                               
01014df1  ti_sysbios_knl_Task_Object__first__S                            
01014e05  ti_sysbios_knl_Task_Object__next__S                             
01014e3d  RingBuf_construct                                               
01014e4f  SemaphoreP_pend                                                 
01014e61  ti_sysbios_hal_Hwi_Module_startup__E                            
01014e73  xdc_runtime_Startup_exec__I                                     
01014e85  HwiP_Params_init                                                
01014e95  LedTimerDeinitStop                                              
01014ea5  MutexP_delete_handle                                            
01014eb5  Mutex_unlock                                                    
01014ec5  SL_SOCKET_FD_ZERO                                               
01014ed5  SemaphoreP_delete_handle                                        
01014ee5  SemaphoreP_post_handle                                          
01014ef5  _SlDrvDispatchHttpServerEvents                                  
01014f05  _SlDrvDispatchNetAppRequestEvents                               
01014f59  ti_sysbios_BIOS_getCpuFreq__E                                   
01014f69  ti_sysbios_BIOS_setThreadType__E                                
01014f79  ti_sysbios_BIOS_start__E                                        
01014f89  ti_sysbios_family_arm_m3_TaskSupport_glue                       
01014f99  ti_sysbios_family_arm_m3_TaskSupport_swap__E                    
01014f99  ti_sysbios_knl_Task_SupportProxy_swap__E                        
01014fa1  ti_sysbios_knl_Task_swapReturn                                  
01014fa9  ti_sysbios_gates_GateMutex_Instance_finalize__E                 
01014fb9  ti_sysbios_knl_Mailbox_Object__get__S                           
01014fc9  ti_sysbios_knl_Semaphore_Instance_finalize__E                   
01014fd9  ti_sysbios_knl_Swi_disable__E                                   
01014fe9  ti_sysbios_knl_Task_Object__get__S                              
01014ff9  ti_sysbios_knl_Task_disable__E                                  
01015009  xdc_runtime_Memory_free__E                                      
01015019  xdc_runtime_SysCallback_abort__E                                
01015019  xdc_runtime_System_SupportProxy_abort__E                        
01015029  xdc_runtime_SysCallback_exit__E                                 
01015029  xdc_runtime_System_SupportProxy_exit__E                         
01015039  Mutex_lock                                                      
01015047  _SlDrvResetCmdExt                                               
01015055  __TI_decompress_none                                            
01015071  pthread_attr_setdetachstate                                     
01015081  sem_wait                                                        
0101508f  spi_Close                                                       
010150a1  ti_sysbios_knl_Idle_loop__E                                     
010150b1  ti_sysbios_knl_Queue_empty__E                                   
010150bf  CC3220SF_LAUNCHXL_initGeneral                                   
010150cb  ClockP_delete                                                   
010150d9  ClockP_getSystemTickPeriod                                      
010150e5  HwiP_delete                                                     
010150f1  MutexP_create                                                   
010150fd  MutexP_delete                                                   
01015109  Network_IF_ResetMCUStateMachine                                 
01015115  NwpMaskInterrupt                                                
01015121  NwpUnMaskInterrupt                                              
0101512d  Power_getConstraintMask                                         
01015139  SemaphoreP_delete                                               
01015145  SimpleLinkHttpServerEventHandler                                
01015151  SimpleLinkNetAppRequestEventHandler                             
0101515d  _SlDeviceResetRequestInitCompletedCB                            
01015169  __TI_zero_init                                                  
01015175  mutexLockup                                                     
01015181  mutexUnlock                                                     
01015199  ti_sysbios_family_arm_m3_Hwi_Params__init__S                    
01015199  ti_sysbios_hal_Hwi_HwiProxy_Params__init__S                     
010151a9  ti_sysbios_family_arm_m3_Hwi_disableFxn__E                      
010151a9  ti_sysbios_hal_Hwi_HwiProxy_disable__E                          
010151b9  ti_sysbios_family_arm_m3_TaskSupport_getStackAlignment__E       
010151b9  ti_sysbios_knl_Task_SupportProxy_getStackAlignment__E           
010151c9  ti_sysbios_gates_GateHwi_enter__E                               
010151d5  ti_sysbios_knl_Clock_Params__init__S                            
010151e1  ClockP_getSystemTicks                                           
010151e1  ti_sysbios_knl_Clock_getTicks__E                                
010151f1  ti_sysbios_knl_Clock_setTicks__E                                
01015201  ti_sysbios_knl_Clock_tickStart__E                               
01015211  ti_sysbios_knl_Clock_tickStop__E                                
0101521d  ti_sysbios_knl_Queue_Object__get__S                             
01015229  ti_sysbios_knl_Semaphore_Params__init__S                        
01015235  ti_sysbios_knl_Task_Params__init__S                             
01015241  uDMAErrorStatusClear                                            
0101524d  uDMAErrorStatusGet                                              
01015259  xdc_runtime_Startup_rtsDone__E                                  
01015265  List_empty                                                      
0101526f  SPI_close                                                       
01015279  SPI_transfer                                                    
01015283  SimpleLinkNetAppRequestMemFreeEventHandler                      
0101528d  UART_control                                                    
01015297  UART_readPolling                                                
010152a1  UART_writePolling                                               
010152ab  ClockP_Params_init                                              
010152b1  pthread_mutex_lock                                              
010152bb  MutexP_Params_init                                              
010152c1  sem_destroy                                                     
010152cb  SPICC32XXDMA_control                                            
010152d1  sem_post                                                        
010152db  sl_Task                                                         
010152e5  xdc_runtime_Memory_HeapProxy_alloc__E                           
010152ef  xdc_runtime_Memory_HeapProxy_free__E                            
010152f9  SemaphoreP_Params_init                                          
01015301  TimerGetCurrentTimestamp                                        
01015311  pthread_attr_setstacksize                                       
01015321  copysign                                                        
01015321  copysignl                                                       
01015329  ti_sysbios_family_arm_m3_Hwi_doSwiRestore__I                    
01015331  ti_sysbios_family_arm_m3_Hwi_startup__E                         
01015331  ti_sysbios_hal_Hwi_HwiProxy_startup__E                          
01015341  UtilsDelay                                                      
01015349  ti_sysbios_family_arm_m3_Hwi_doTaskRestore__I                   
01015351  HwiP_restore                                                    
01015351  ti_sysbios_family_arm_m3_Hwi_restoreFxn__E                      
01015351  ti_sysbios_hal_Hwi_HwiProxy_restore__E                          
01015359  ti_sysbios_gates_GateHwi_leave__E                               
01015361  ti_sysbios_heaps_HeapMem_isBlocking__E                          
01015369  ti_sysbios_knl_Clock_stop__E                                    
01015371  ti_sysbios_knl_Queue_Instance_init__E                           
01015379  ti_sysbios_knl_Swi_startup__E                                   
01015381  xdc_runtime_System_Module_startup__E                            
01015389  ti_sysbios_family_arm_m3_Timer_getMaxTicks__E                   
01015391  ti_sysbios_gates_GateHwi_query__E                               
01015391  xdc_runtime_Main_Module_GateProxy_query__E                      
01015391  xdc_runtime_System_Module_GateProxy_query__E                    
01015399  ti_sysbios_BIOS_RtsGateProxy_query__E                           
01015399  ti_sysbios_gates_GateMutex_query__E                             
01015399  ti_sysbios_heaps_HeapMem_Module_GateProxy_query__E              
010153a1  ti_sysbios_knl_Clock_setTimeout__E                              
010153a9  ti_sysbios_knl_Task_startup__E                                  
010153b1  ti_sysbios_BIOS_linkedWithIncorrectBootLibrary__E               
010153b9  ti_sysbios_gates_GateHwi_Instance_init__E                       
010153c1  ti_sysbios_knl_Clock_logTick__E                                 
010153c9  xdc_runtime_SysCallback_defaultAbort                            
010153d1  xdc_runtime_SysCallback_defaultExit                             
010153d9  xdc_runtime_System_abortSpin__E                                 
010153e1  xdc_runtime_System_exitSpin__E                                  
010153e4  _ctypes_                                                        
01015778  spiCC3220SDMAHWAttrs                                            
010157f0  OpcodeTranslateTable                                            
01015850  _SlActionLookupTable                                            
010158e8  PowerCC32XX_config                                              
01015928  uartCC3220SHWAttrs                                              
01015968  ti_sysbios_knl_Task_Object__PARAMS__C                           
010159a4  ti_sysbios_knl_Mailbox_Object__PARAMS__C                        
010159d8  ti_sysbios_family_arm_m3_Hwi_Object__PARAMS__C                  
01015a08  UARTCC32XX_fxnTable                                             
01015a30  ti_sysbios_heaps_HeapMem_Module__FXNS__C                        
01015a58  UART_defaultParams                                              
01015a7c  ti_sysbios_gates_GateHwi_Module__FXNS__C                        
01015aa0  ti_sysbios_gates_GateMutex_Module__FXNS__C                      
01015ac4  ti_sysbios_heaps_HeapMem_Object__PARAMS__C                      
01015ae8  ti_sysbios_knl_Clock_Object__PARAMS__C                          
01015b0c  ti_sysbios_knl_Semaphore_Object__PARAMS__C                      
01015b74  SPI_defaultParams                                               
01015bd4  ti_sysbios_family_arm_m3_Hwi_Object__DESC__C                    
01015bf4  ti_sysbios_gates_GateHwi_Object__DESC__C                        
01015c14  ti_sysbios_gates_GateMutex_Object__DESC__C                      
01015c34  ti_sysbios_heaps_HeapMem_Object__DESC__C                        
01015c54  ti_sysbios_knl_Clock_Object__DESC__C                            
01015c74  ti_sysbios_knl_Mailbox_Object__DESC__C                          
01015c94  ti_sysbios_knl_Queue_Object__DESC__C                            
01015cb4  ti_sysbios_knl_Semaphore_Object__DESC__C                        
01015cd4  ti_sysbios_knl_Task_Object__DESC__C                             
01015cf4  xdc_runtime_Startup_sfxnTab__A                                  
01015d14  SPICC32XXDMA_fxnTable                                           
01015d2c  SPI_config                                                      
01015d44  UART_config                                                     
01015d5c  ti_sysbios_gates_GateHwi_Object__PARAMS__C                      
01015d74  ti_sysbios_gates_GateMutex_Object__PARAMS__C                    
01015d8c  ti_sysbios_knl_Queue_Object__PARAMS__C                          
01015e4c  GPIOCC32XX_config                                               
01015efc  xdc_runtime_Startup_sfxnRts__A                                  
01015f0c  ADC_count                                                       
01015f0d  CryptoCC32XX_count                                              
01015f0e  Display_count                                                   
01015f0f  I2C_count                                                       
01015f10  I2S_count                                                       
01015f11  PWM_count                                                       
01015f12  SDFatFS_count                                                   
01015f13  SD_count                                                        
01015f14  SDSPI_count                                                     
01015f15  SPI_count                                                       
01015f16  Timer_count                                                     
01015f17  UART_count                                                      
01015f18  Watchdog_count                                                  
01015f19  ti_sysbios_knl_Clock_tickMode__C                                
01015f1a  ti_sysbios_family_arm_m3_Hwi_Module__id__C                      
01015f40  udmaCC3220SHWAttrs                                              
01015f4c  xdc_runtime_Startup_firstFxns__A                                
01015f60  UDMACC32XX_config                                               
01015f80  outPinTypes                                                     
01015f90  ti_sysbios_knl_Idle_funcList__A                                 
01015f98  ti_sysbios_knl_Idle_funcList__C                                 
01015fa0  xdc_runtime_Startup_firstFxns__C                                
01015fa8  xdc_runtime_Startup_lastFxns__C                                 
01015fb6  inPinTypes                                                      
01015fbc  outPinStrengths                                                 
01015fc7  ti_sysbios_knl_Clock_tickSource__C                              
01015ff0  _SlNetAppSendResponseCmdCtrl                                    
01015ff4  _SlNetAppSendTokenValueCmdCtrl                                  
01016020  ti_sysbios_family_arm_m3_Hwi_E_alreadyDefined__C                
01016024  ti_sysbios_family_arm_m3_Hwi_NUM_INTERRUPTS__C                  
01016028  ti_sysbios_family_arm_m3_Hwi_Object__count__C                   
0101602c  ti_sysbios_family_arm_m3_Hwi_ccr__C                             
01016030  ti_sysbios_family_arm_m3_Hwi_excHandlerFunc__C                  
01016034  ti_sysbios_family_arm_m3_Hwi_nullIsrFunc__C                     
01016038  ti_sysbios_family_arm_m3_Hwi_priGroup__C                        
0101603c  ti_sysbios_family_arm_m3_Hwi_swiDisable__C                      
01016040  ti_sysbios_family_arm_m3_Hwi_swiRestoreHwi__C                   
01016044  ti_sysbios_family_arm_m3_TaskSupport_stackAlignment__C          
01016048  ti_sysbios_family_arm_m3_Timer_E_cannotSupport__C               
0101604c  ti_sysbios_family_arm_m3_Timer_startupNeeded__C                 
01016050  ti_sysbios_gates_GateMutex_Instance_State_sem__O                
01016054  ti_sysbios_heaps_HeapMem_E_memory__C                            
01016058  ti_sysbios_heaps_HeapMem_Module__gateObj__C                     
0101605c  ti_sysbios_heaps_HeapMem_Object__count__C                       
01016060  ti_sysbios_heaps_HeapMem_primaryHeapBaseAddr__C                 
01016064  ti_sysbios_heaps_HeapMem_primaryHeapEndAddr__C                  
01016068  ti_sysbios_heaps_HeapMem_reqAlign__C                            
0101606c  ti_sysbios_knl_Clock_Module_State_clockQ__O                     
01016070  ti_sysbios_knl_Clock_tickPeriod__C                              
01016074  ti_sysbios_knl_Mailbox_Instance_State_dataQue__O                
01016078  ti_sysbios_knl_Mailbox_Instance_State_dataSem__O                
0101607c  ti_sysbios_knl_Mailbox_Instance_State_freeQue__O                
01016080  ti_sysbios_knl_Mailbox_Instance_State_freeSem__O                
01016084  ti_sysbios_knl_Mailbox_Object__count__C                         
01016088  ti_sysbios_knl_Mailbox_maxTypeAlign__C                          
0101608c  ti_sysbios_knl_Semaphore_Instance_State_pendQ__O                
01016090  ti_sysbios_knl_Swi_Object__count__C                             
01016094  ti_sysbios_knl_Task_E_deleteNotAllowed__C                       
01016098  ti_sysbios_knl_Task_Module_State_inactiveQ__O                   
0101609c  ti_sysbios_knl_Task_Module_State_terminatedQ__O                 
010160a0  ti_sysbios_knl_Task_Object__count__C                            
010160a4  ti_sysbios_knl_Task_Object__heap__C                             
010160a8  ti_sysbios_knl_Task_allBlockedFunc__C                           
010160ac  ti_sysbios_knl_Task_defaultStackHeap__C                         
010160b0  ti_sysbios_knl_Task_defaultStackSize__C                         
010160b4  ti_sysbios_knl_Task_numConstructedTasks__C                      
010160b8  xdc_runtime_Error_E_memory__C                                   
010160bc  xdc_runtime_Error_policyFxn__C                                  
010160c0  xdc_runtime_IGateProvider_Interface__BASE__C                    
010160c4  xdc_runtime_IHeap_Interface__BASE__C                            
010160c8  xdc_runtime_IModule_Interface__BASE__C                          
010160cc  xdc_runtime_Memory_defaultHeapInstance__C                       
010160d0  xdc_runtime_Startup_execImpl__C                                 
010160d4  xdc_runtime_Startup_maxPasses__C                                
010160d8  xdc_runtime_Startup_sfxnRts__C                                  
010160dc  xdc_runtime_Startup_sfxnTab__C                                  
010160e0  xdc_runtime_SysCallback_abortFxn__C                             
010160e4  xdc_runtime_SysCallback_exitFxn__C                              
010160e8  xdc_runtime_System_Module__gateObj__C                           
010160ec  xdc_runtime_System_abortFxn__C                                  
010160f0  xdc_runtime_System_exitFxn__C                                   
010160f4  xdc_runtime_System_maxAtexitHandlers__C                         
010160f8  xdc_runtime_Text_charTab__C                                     
010160fc  xdc_runtime_Text_nameEmpty__C                                   
01016100  xdc_runtime_Text_nameStatic__C                                  
01016104  xdc_runtime_Text_nameUnknown__C                                 
01016108  ti_sysbios_family_arm_m3_Timer_Module__id__C                    
0101610a  ti_sysbios_heaps_HeapMem_Module__id__C                          
0101610c  ti_sysbios_knl_Task_Module__id__C                               
0101610e  xdc_runtime_Memory_Module__id__C                                
01016110  xdc_runtime_Text_charCnt__C                                     
01016112  xdc_runtime_Text_isLoaded__C                                    
01016114  xdc_runtime_Error_policy__C                                     
01016115  xdc_runtime_Text_charTab__A                                     
01016118  __TI_static_base__                                              
010163f0  __TI_Handler_Table_Base                                         
010163fc  __TI_Handler_Table_Limit                                        
01016408  __TI_CINIT_Base                                                 
01016418  __TI_CINIT_Limit                                                
20000000  ti_sysbios_family_arm_m3_Hwi_ramVectors                         
20000310  __primary_heap_start__                                          
20008310  __primary_heap_end__                                            
200093d8  clients                                                         
20009828  ti_sysbios_family_arm_m3_Hwi_dispatchTable                      
20009b34  g_SlInternalSpawnCB                                             
20009bc8  g_ucConnectionSSID                                              
2000a000  ti_sysbios_knl_Task_Instance_State_0_stack__A                   
2000a330  PowerCC32XX_contextSave                                         
2000a45c  uartCC3220SObjects                                              
2000a574  spiCC3220SDMAObjects                                            
2000a644  MQTTClient_Lib_CB                                               
2000a688  uartCC3220SRingBuffer                                           
2000a724  DeviceCB                                                        
2000a730  MqttClientExmple_params                                         
2000a73c  Msg                                                             
2000a748  g_ucConnectionBSSID                                             
2000a750  udmaCC3220SObject                                               
2000a760  spiCC3220SDMAscratchBuf                                         
2000a768  ClockP_tickPeriod                                               
2000a76c  GlobalLockObj                                                   
2000a770  g_PBQueue                                                       
2000a774  g_timer                                                         
2000a778  MQTTClient_waitSecs                                             
2000a77a  g_usConnectIndex                                                
2000a77c  g_usTimerInts                                                   
2000a77e  RxIrqCnt                                                        
2000a780  PowerCC32XX_module                                              
2000a8ec  parkInfo                                                        
2000a9e4  ti_sysbios_knl_Swi_Module_State_0_readyQ__A                     
2000aa64  ti_sysbios_knl_Task_Module_State_0_readyQ__A                    
2000ab54  ti_sysbios_knl_Task_Object__table__V                            
2000aba0  ti_sysbios_knl_Task_Module__state__V                            
2000abf4  debugPrintf                                                     
2000ac1d  lineBreak                                                       
2000ac20  ti_sysbios_gates_GateMutex_Object__table__V                     
2000ac58  ti_sysbios_family_arm_m3_Hwi_Module__state__V                   
2000ac8c  gApConnectionState                                              
2000ac90  gInitState                                                      
2000ac94  memPtrCounterfree                                               
2000ac98  gResetApplication                                               
2000ac9c  g_rx_task_hndl                                                  
2000aca0  gUiConnFlag                                                     
2000aca4  ClientUsername                                                  
2000aca8  ClientPassword                                                  
2000acac  publish_topic                                                   
2000acb0  publish_data                                                    
2000acb4  mqttThread                                                      
2000acb8  appThread                                                       
2000acbc  ti_sysbios_family_arm_m3_Timer_Object__table__V                 
2000acec  ti_sysbios_knl_Swi_Object__table__V                             
2000ad1c  ti_sysbios_knl_Clock_Module__state__V                           
2000ad48  MQTTClient_net                                                  
2000ad70  g_LibsEvents                                                    
2000ad94  g_UserEvents                                                    
2000adb8  ti_sysbios_BIOS_Module__state__V                                
2000addc  xdc_runtime_Error_IgnoreBlock                                   
2000adfc  ti_sysbios_knl_Swi_Module__state__V                             
2000ae18  Mqtt_ClientCtx                                                  
2000ae30  ti_sysbios_family_arm_m3_Hwi_Object__table__V                   
2000ae48  ti_sysbios_heaps_HeapMem_Object__table__V                       
2000ae60  gpioPinConfigs                                                  
2000ae74  topic                                                           
2000ae84  ClientId                                                        
2000ae92  ti_sysbios_family_arm_m3_Hwi_Module_State_0_excActive__A        
2000ae94  SecurityParams                                                  
2000aea0  SlMQTTClient_clientCfg                                          
2000aeac  g_ulStaIp                                                       
2000aeb0  g_ulGatewayIP                                                   
2000aeb4  g_ulStatus                                                      
2000aeb8  gGlobalLockCntRequested                                         
2000aeb9  gGlobalLockCntReleased                                          
2000aeba  g_SlDeviceStatus                                                
2000aebc  g_pCB                                                           
2000aec0  pPingCallBackFunc                                               
2000aec4  ti_sysbios_family_arm_m3_Timer_Module__state__V                 
2000aed0  will_param                                                      
2000aef4  MQTTClient_closeContext                                         
2000aef8  MQTTClient_clientContext                                        
2000aefc  MQTTClient_multiSrvConn                                         
2000af00  _lock                                                           
2000af04  _unlock                                                         
2000af10  gpioCallbackFunctions                                           
2000af18  ti_sysbios_family_arm_cc32xx_Seconds_Module__state__V           
2000af20  ti_sysbios_family_arm_m3_Hwi_Module__root__V                    
2000af28  ti_sysbios_gates_GateHwi_Module__root__V                        
2000af30  ti_sysbios_gates_GateMutex_Module__root__V                      
2000af38  ti_sysbios_heaps_HeapMem_Module__root__V                        
2000af40  ti_sysbios_knl_Clock_Module__root__V                            
2000af48  ti_sysbios_knl_Mailbox_Module__root__V                          
2000af50  ti_sysbios_knl_Queue_Module__root__V                            
2000af58  ti_sysbios_knl_Semaphore_Module__root__V                        
2000af60  ti_sysbios_knl_Task_Module__root__V                             
2000af68  xdc_runtime_Startup_Module__state__V                            
2000af70  xdc_runtime_System_Module_State_0_atexitHandlers__A             
2000af78  xdc_runtime_System_Module__state__V                             
2000af88  MQTTClient_connectCfg                                           
2000af8c  qos                                                             
2000af90  errno                                                           
2000af94  main_func_sp                                                    
2000af9c  g_intHandle                                                     
2000afa0  ti_sysbios_family_arm_m3_Hwi_Module_State_0_excContext__A       
2000afa4  ti_sysbios_family_arm_m3_Hwi_Module_State_0_excStack__A         
2000afa8  ti_sysbios_gates_GateHwi_Object__table__V                       
2000afac  ti_sysbios_knl_Task_Module_State_0_idleTask__A                  
2000afb0  xdc_runtime_Memory_Module__state__V                             
2003fc00  __stack                                                         
20040000  __STACK_END                                                     
e000e000  ti_sysbios_family_arm_m3_Hwi_nvic                               
ffffffff  __TI_pprof_out_hndl                                             
ffffffff  __TI_prof_data_size                                             
ffffffff  __TI_prof_data_start                                            
ffffffff  __binit__                                                       
ffffffff  __c_args__                                                      
ffffffff  binit                                                           
UNDEFED   SHT$$INIT_ARRAY$$Base                                           
UNDEFED   SHT$$INIT_ARRAY$$Limit                                          

[928 symbols]
